ARM GAS  C:\Users\User\AppData\Local\Temp\ccHrT0KT.s 			page 1


   1              		.cpu cortex-m4
   2              		.arch armv7e-m
   3              		.fpu fpv4-sp-d16
   4              		.eabi_attribute 27, 1
   5              		.eabi_attribute 28, 1
   6              		.eabi_attribute 20, 1
   7              		.eabi_attribute 21, 1
   8              		.eabi_attribute 23, 3
   9              		.eabi_attribute 24, 1
  10              		.eabi_attribute 25, 1
  11              		.eabi_attribute 26, 1
  12              		.eabi_attribute 30, 1
  13              		.eabi_attribute 34, 1
  14              		.eabi_attribute 18, 4
  15              		.file	"can.c"
  16              		.text
  17              	.Ltext0:
  18              		.cfi_sections	.debug_frame
  19              		.section	.text.MX_CAN_Init,"ax",%progbits
  20              		.align	1
  21              		.global	MX_CAN_Init
  22              		.syntax unified
  23              		.thumb
  24              		.thumb_func
  26              	MX_CAN_Init:
  27              	.LFB123:
  28              		.file 1 "Core/Src/can.c"
   1:Core/Src/can.c **** /* USER CODE BEGIN Header */
   2:Core/Src/can.c **** /**
   3:Core/Src/can.c ****   ******************************************************************************
   4:Core/Src/can.c ****   * @file    can.c
   5:Core/Src/can.c ****   * @brief   This file provides code for the configuration
   6:Core/Src/can.c ****   *          of the CAN instances.
   7:Core/Src/can.c ****   ******************************************************************************
   8:Core/Src/can.c ****   * @attention
   9:Core/Src/can.c ****   *
  10:Core/Src/can.c ****   * Copyright (c) 2022 STMicroelectronics.
  11:Core/Src/can.c ****   * All rights reserved.
  12:Core/Src/can.c ****   *
  13:Core/Src/can.c ****   * This software is licensed under terms that can be found in the LICENSE file
  14:Core/Src/can.c ****   * in the root directory of this software component.
  15:Core/Src/can.c ****   * If no LICENSE file comes with this software, it is provided AS-IS.
  16:Core/Src/can.c ****   *
  17:Core/Src/can.c ****   ******************************************************************************
  18:Core/Src/can.c ****   */
  19:Core/Src/can.c **** /* USER CODE END Header */
  20:Core/Src/can.c **** /* Includes ------------------------------------------------------------------*/
  21:Core/Src/can.c **** #include "can.h"
  22:Core/Src/can.c **** 
  23:Core/Src/can.c **** /* USER CODE BEGIN 0 */
  24:Core/Src/can.c **** 
  25:Core/Src/can.c **** /* USER CODE END 0 */
  26:Core/Src/can.c **** 
  27:Core/Src/can.c **** CAN_HandleTypeDef hcan;
  28:Core/Src/can.c **** 
  29:Core/Src/can.c **** /* CAN init function */
  30:Core/Src/can.c **** void MX_CAN_Init(void)
ARM GAS  C:\Users\User\AppData\Local\Temp\ccHrT0KT.s 			page 2


  31:Core/Src/can.c **** {
  29              		.loc 1 31 1 view -0
  30              		.cfi_startproc
  31              		@ args = 0, pretend = 0, frame = 0
  32              		@ frame_needed = 0, uses_anonymous_args = 0
  33 0000 08B5     		push	{r3, lr}
  34              	.LCFI0:
  35              		.cfi_def_cfa_offset 8
  36              		.cfi_offset 3, -8
  37              		.cfi_offset 14, -4
  32:Core/Src/can.c **** 
  33:Core/Src/can.c ****   /* USER CODE BEGIN CAN_Init 0 */
  34:Core/Src/can.c **** 
  35:Core/Src/can.c ****   /* USER CODE END CAN_Init 0 */
  36:Core/Src/can.c **** 
  37:Core/Src/can.c ****   /* USER CODE BEGIN CAN_Init 1 */
  38:Core/Src/can.c **** 
  39:Core/Src/can.c ****   /* USER CODE END CAN_Init 1 */
  40:Core/Src/can.c ****   hcan.Instance = CAN;
  38              		.loc 1 40 3 view .LVU1
  39              		.loc 1 40 17 is_stmt 0 view .LVU2
  40 0002 0D48     		ldr	r0, .L5
  41 0004 0D4B     		ldr	r3, .L5+4
  42 0006 0360     		str	r3, [r0]
  41:Core/Src/can.c ****   hcan.Init.Prescaler = 4;
  43              		.loc 1 41 3 is_stmt 1 view .LVU3
  44              		.loc 1 41 23 is_stmt 0 view .LVU4
  45 0008 0423     		movs	r3, #4
  46 000a 4360     		str	r3, [r0, #4]
  42:Core/Src/can.c ****   hcan.Init.Mode = CAN_MODE_NORMAL;
  47              		.loc 1 42 3 is_stmt 1 view .LVU5
  48              		.loc 1 42 18 is_stmt 0 view .LVU6
  49 000c 0023     		movs	r3, #0
  50 000e 8360     		str	r3, [r0, #8]
  43:Core/Src/can.c ****   hcan.Init.SyncJumpWidth = CAN_SJW_1TQ;
  51              		.loc 1 43 3 is_stmt 1 view .LVU7
  52              		.loc 1 43 27 is_stmt 0 view .LVU8
  53 0010 C360     		str	r3, [r0, #12]
  44:Core/Src/can.c ****   hcan.Init.TimeSeg1 = CAN_BS1_3TQ;
  54              		.loc 1 44 3 is_stmt 1 view .LVU9
  55              		.loc 1 44 22 is_stmt 0 view .LVU10
  56 0012 4FF40032 		mov	r2, #131072
  57 0016 0261     		str	r2, [r0, #16]
  45:Core/Src/can.c ****   hcan.Init.TimeSeg2 = CAN_BS2_4TQ;
  58              		.loc 1 45 3 is_stmt 1 view .LVU11
  59              		.loc 1 45 22 is_stmt 0 view .LVU12
  60 0018 4FF44012 		mov	r2, #3145728
  61 001c 4261     		str	r2, [r0, #20]
  46:Core/Src/can.c ****   hcan.Init.TimeTriggeredMode = DISABLE;
  62              		.loc 1 46 3 is_stmt 1 view .LVU13
  63              		.loc 1 46 31 is_stmt 0 view .LVU14
  64 001e 0376     		strb	r3, [r0, #24]
  47:Core/Src/can.c ****   hcan.Init.AutoBusOff = DISABLE;
  65              		.loc 1 47 3 is_stmt 1 view .LVU15
  66              		.loc 1 47 24 is_stmt 0 view .LVU16
  67 0020 4376     		strb	r3, [r0, #25]
  48:Core/Src/can.c ****   hcan.Init.AutoWakeUp = DISABLE;
ARM GAS  C:\Users\User\AppData\Local\Temp\ccHrT0KT.s 			page 3


  68              		.loc 1 48 3 is_stmt 1 view .LVU17
  69              		.loc 1 48 24 is_stmt 0 view .LVU18
  70 0022 8376     		strb	r3, [r0, #26]
  49:Core/Src/can.c ****   hcan.Init.AutoRetransmission = DISABLE;
  71              		.loc 1 49 3 is_stmt 1 view .LVU19
  72              		.loc 1 49 32 is_stmt 0 view .LVU20
  73 0024 C376     		strb	r3, [r0, #27]
  50:Core/Src/can.c ****   hcan.Init.ReceiveFifoLocked = DISABLE;
  74              		.loc 1 50 3 is_stmt 1 view .LVU21
  75              		.loc 1 50 31 is_stmt 0 view .LVU22
  76 0026 0377     		strb	r3, [r0, #28]
  51:Core/Src/can.c ****   hcan.Init.TransmitFifoPriority = DISABLE;
  77              		.loc 1 51 3 is_stmt 1 view .LVU23
  78              		.loc 1 51 34 is_stmt 0 view .LVU24
  79 0028 4377     		strb	r3, [r0, #29]
  52:Core/Src/can.c ****   if (HAL_CAN_Init(&hcan) != HAL_OK)
  80              		.loc 1 52 3 is_stmt 1 view .LVU25
  81              		.loc 1 52 7 is_stmt 0 view .LVU26
  82 002a FFF7FEFF 		bl	HAL_CAN_Init
  83              	.LVL0:
  84              		.loc 1 52 6 view .LVU27
  85 002e 00B9     		cbnz	r0, .L4
  86              	.L1:
  53:Core/Src/can.c ****   {
  54:Core/Src/can.c ****     Error_Handler();
  55:Core/Src/can.c ****   }
  56:Core/Src/can.c ****   /* USER CODE BEGIN CAN_Init 2 */
  57:Core/Src/can.c **** 
  58:Core/Src/can.c ****   /* USER CODE END CAN_Init 2 */
  59:Core/Src/can.c **** 
  60:Core/Src/can.c **** }
  87              		.loc 1 60 1 view .LVU28
  88 0030 08BD     		pop	{r3, pc}
  89              	.L4:
  54:Core/Src/can.c ****   }
  90              		.loc 1 54 5 is_stmt 1 view .LVU29
  91 0032 FFF7FEFF 		bl	Error_Handler
  92              	.LVL1:
  93              		.loc 1 60 1 is_stmt 0 view .LVU30
  94 0036 FBE7     		b	.L1
  95              	.L6:
  96              		.align	2
  97              	.L5:
  98 0038 00000000 		.word	.LANCHOR0
  99 003c 00640040 		.word	1073767424
 100              		.cfi_endproc
 101              	.LFE123:
 103              		.section	.text.HAL_CAN_MspInit,"ax",%progbits
 104              		.align	1
 105              		.global	HAL_CAN_MspInit
 106              		.syntax unified
 107              		.thumb
 108              		.thumb_func
 110              	HAL_CAN_MspInit:
 111              	.LVL2:
 112              	.LFB124:
  61:Core/Src/can.c **** 
ARM GAS  C:\Users\User\AppData\Local\Temp\ccHrT0KT.s 			page 4


  62:Core/Src/can.c **** void HAL_CAN_MspInit(CAN_HandleTypeDef* canHandle)
  63:Core/Src/can.c **** {
 113              		.loc 1 63 1 is_stmt 1 view -0
 114              		.cfi_startproc
 115              		@ args = 0, pretend = 0, frame = 32
 116              		@ frame_needed = 0, uses_anonymous_args = 0
 117              		.loc 1 63 1 is_stmt 0 view .LVU32
 118 0000 00B5     		push	{lr}
 119              	.LCFI1:
 120              		.cfi_def_cfa_offset 4
 121              		.cfi_offset 14, -4
 122 0002 89B0     		sub	sp, sp, #36
 123              	.LCFI2:
 124              		.cfi_def_cfa_offset 40
  64:Core/Src/can.c **** 
  65:Core/Src/can.c ****   GPIO_InitTypeDef GPIO_InitStruct = {0};
 125              		.loc 1 65 3 is_stmt 1 view .LVU33
 126              		.loc 1 65 20 is_stmt 0 view .LVU34
 127 0004 0023     		movs	r3, #0
 128 0006 0393     		str	r3, [sp, #12]
 129 0008 0493     		str	r3, [sp, #16]
 130 000a 0593     		str	r3, [sp, #20]
 131 000c 0693     		str	r3, [sp, #24]
 132 000e 0793     		str	r3, [sp, #28]
  66:Core/Src/can.c ****   if(canHandle->Instance==CAN)
 133              		.loc 1 66 3 is_stmt 1 view .LVU35
 134              		.loc 1 66 15 is_stmt 0 view .LVU36
 135 0010 0268     		ldr	r2, [r0]
 136              		.loc 1 66 5 view .LVU37
 137 0012 184B     		ldr	r3, .L11
 138 0014 9A42     		cmp	r2, r3
 139 0016 02D0     		beq	.L10
 140              	.LVL3:
 141              	.L7:
  67:Core/Src/can.c ****   {
  68:Core/Src/can.c ****   /* USER CODE BEGIN CAN_MspInit 0 */
  69:Core/Src/can.c **** 
  70:Core/Src/can.c ****   /* USER CODE END CAN_MspInit 0 */
  71:Core/Src/can.c ****     /* CAN clock enable */
  72:Core/Src/can.c ****     __HAL_RCC_CAN1_CLK_ENABLE();
  73:Core/Src/can.c **** 
  74:Core/Src/can.c ****     __HAL_RCC_GPIOA_CLK_ENABLE();
  75:Core/Src/can.c ****     /**CAN GPIO Configuration
  76:Core/Src/can.c ****     PA11     ------> CAN_RX
  77:Core/Src/can.c ****     PA12     ------> CAN_TX
  78:Core/Src/can.c ****     */
  79:Core/Src/can.c ****     GPIO_InitStruct.Pin = GPIO_PIN_11|GPIO_PIN_12;
  80:Core/Src/can.c ****     GPIO_InitStruct.Mode = GPIO_MODE_AF_PP;
  81:Core/Src/can.c ****     GPIO_InitStruct.Pull = GPIO_NOPULL;
  82:Core/Src/can.c ****     GPIO_InitStruct.Speed = GPIO_SPEED_FREQ_HIGH;
  83:Core/Src/can.c ****     GPIO_InitStruct.Alternate = GPIO_AF9_CAN;
  84:Core/Src/can.c ****     HAL_GPIO_Init(GPIOA, &GPIO_InitStruct);
  85:Core/Src/can.c **** 
  86:Core/Src/can.c ****     /* CAN interrupt Init */
  87:Core/Src/can.c ****     HAL_NVIC_SetPriority(CAN_RX0_IRQn, 0, 0);
  88:Core/Src/can.c ****     HAL_NVIC_EnableIRQ(CAN_RX0_IRQn);
  89:Core/Src/can.c ****   /* USER CODE BEGIN CAN_MspInit 1 */
ARM GAS  C:\Users\User\AppData\Local\Temp\ccHrT0KT.s 			page 5


  90:Core/Src/can.c **** 
  91:Core/Src/can.c ****   /* USER CODE END CAN_MspInit 1 */
  92:Core/Src/can.c ****   }
  93:Core/Src/can.c **** }
 142              		.loc 1 93 1 view .LVU38
 143 0018 09B0     		add	sp, sp, #36
 144              	.LCFI3:
 145              		.cfi_remember_state
 146              		.cfi_def_cfa_offset 4
 147              		@ sp needed
 148 001a 5DF804FB 		ldr	pc, [sp], #4
 149              	.LVL4:
 150              	.L10:
 151              	.LCFI4:
 152              		.cfi_restore_state
  72:Core/Src/can.c **** 
 153              		.loc 1 72 5 is_stmt 1 view .LVU39
 154              	.LBB2:
  72:Core/Src/can.c **** 
 155              		.loc 1 72 5 view .LVU40
  72:Core/Src/can.c **** 
 156              		.loc 1 72 5 view .LVU41
 157 001e 03F5D633 		add	r3, r3, #109568
 158 0022 DA69     		ldr	r2, [r3, #28]
 159 0024 42F00072 		orr	r2, r2, #33554432
 160 0028 DA61     		str	r2, [r3, #28]
  72:Core/Src/can.c **** 
 161              		.loc 1 72 5 view .LVU42
 162 002a DA69     		ldr	r2, [r3, #28]
 163 002c 02F00072 		and	r2, r2, #33554432
 164 0030 0192     		str	r2, [sp, #4]
  72:Core/Src/can.c **** 
 165              		.loc 1 72 5 view .LVU43
 166 0032 019A     		ldr	r2, [sp, #4]
 167              	.LBE2:
  72:Core/Src/can.c **** 
 168              		.loc 1 72 5 view .LVU44
  74:Core/Src/can.c ****     /**CAN GPIO Configuration
 169              		.loc 1 74 5 view .LVU45
 170              	.LBB3:
  74:Core/Src/can.c ****     /**CAN GPIO Configuration
 171              		.loc 1 74 5 view .LVU46
  74:Core/Src/can.c ****     /**CAN GPIO Configuration
 172              		.loc 1 74 5 view .LVU47
 173 0034 5A69     		ldr	r2, [r3, #20]
 174 0036 42F40032 		orr	r2, r2, #131072
 175 003a 5A61     		str	r2, [r3, #20]
  74:Core/Src/can.c ****     /**CAN GPIO Configuration
 176              		.loc 1 74 5 view .LVU48
 177 003c 5B69     		ldr	r3, [r3, #20]
 178 003e 03F40033 		and	r3, r3, #131072
 179 0042 0293     		str	r3, [sp, #8]
  74:Core/Src/can.c ****     /**CAN GPIO Configuration
 180              		.loc 1 74 5 view .LVU49
 181 0044 029B     		ldr	r3, [sp, #8]
 182              	.LBE3:
  74:Core/Src/can.c ****     /**CAN GPIO Configuration
ARM GAS  C:\Users\User\AppData\Local\Temp\ccHrT0KT.s 			page 6


 183              		.loc 1 74 5 view .LVU50
  79:Core/Src/can.c ****     GPIO_InitStruct.Mode = GPIO_MODE_AF_PP;
 184              		.loc 1 79 5 view .LVU51
  79:Core/Src/can.c ****     GPIO_InitStruct.Mode = GPIO_MODE_AF_PP;
 185              		.loc 1 79 25 is_stmt 0 view .LVU52
 186 0046 4FF4C053 		mov	r3, #6144
 187 004a 0393     		str	r3, [sp, #12]
  80:Core/Src/can.c ****     GPIO_InitStruct.Pull = GPIO_NOPULL;
 188              		.loc 1 80 5 is_stmt 1 view .LVU53
  80:Core/Src/can.c ****     GPIO_InitStruct.Pull = GPIO_NOPULL;
 189              		.loc 1 80 26 is_stmt 0 view .LVU54
 190 004c 0223     		movs	r3, #2
 191 004e 0493     		str	r3, [sp, #16]
  81:Core/Src/can.c ****     GPIO_InitStruct.Speed = GPIO_SPEED_FREQ_HIGH;
 192              		.loc 1 81 5 is_stmt 1 view .LVU55
  82:Core/Src/can.c ****     GPIO_InitStruct.Alternate = GPIO_AF9_CAN;
 193              		.loc 1 82 5 view .LVU56
  82:Core/Src/can.c ****     GPIO_InitStruct.Alternate = GPIO_AF9_CAN;
 194              		.loc 1 82 27 is_stmt 0 view .LVU57
 195 0050 0323     		movs	r3, #3
 196 0052 0693     		str	r3, [sp, #24]
  83:Core/Src/can.c ****     HAL_GPIO_Init(GPIOA, &GPIO_InitStruct);
 197              		.loc 1 83 5 is_stmt 1 view .LVU58
  83:Core/Src/can.c ****     HAL_GPIO_Init(GPIOA, &GPIO_InitStruct);
 198              		.loc 1 83 31 is_stmt 0 view .LVU59
 199 0054 0923     		movs	r3, #9
 200 0056 0793     		str	r3, [sp, #28]
  84:Core/Src/can.c **** 
 201              		.loc 1 84 5 is_stmt 1 view .LVU60
 202 0058 03A9     		add	r1, sp, #12
 203 005a 4FF09040 		mov	r0, #1207959552
 204              	.LVL5:
  84:Core/Src/can.c **** 
 205              		.loc 1 84 5 is_stmt 0 view .LVU61
 206 005e FFF7FEFF 		bl	HAL_GPIO_Init
 207              	.LVL6:
  87:Core/Src/can.c ****     HAL_NVIC_EnableIRQ(CAN_RX0_IRQn);
 208              		.loc 1 87 5 is_stmt 1 view .LVU62
 209 0062 0022     		movs	r2, #0
 210 0064 1146     		mov	r1, r2
 211 0066 1420     		movs	r0, #20
 212 0068 FFF7FEFF 		bl	HAL_NVIC_SetPriority
 213              	.LVL7:
  88:Core/Src/can.c ****   /* USER CODE BEGIN CAN_MspInit 1 */
 214              		.loc 1 88 5 view .LVU63
 215 006c 1420     		movs	r0, #20
 216 006e FFF7FEFF 		bl	HAL_NVIC_EnableIRQ
 217              	.LVL8:
 218              		.loc 1 93 1 is_stmt 0 view .LVU64
 219 0072 D1E7     		b	.L7
 220              	.L12:
 221              		.align	2
 222              	.L11:
 223 0074 00640040 		.word	1073767424
 224              		.cfi_endproc
 225              	.LFE124:
 227              		.section	.text.HAL_CAN_MspDeInit,"ax",%progbits
ARM GAS  C:\Users\User\AppData\Local\Temp\ccHrT0KT.s 			page 7


 228              		.align	1
 229              		.global	HAL_CAN_MspDeInit
 230              		.syntax unified
 231              		.thumb
 232              		.thumb_func
 234              	HAL_CAN_MspDeInit:
 235              	.LVL9:
 236              	.LFB125:
  94:Core/Src/can.c **** 
  95:Core/Src/can.c **** void HAL_CAN_MspDeInit(CAN_HandleTypeDef* canHandle)
  96:Core/Src/can.c **** {
 237              		.loc 1 96 1 is_stmt 1 view -0
 238              		.cfi_startproc
 239              		@ args = 0, pretend = 0, frame = 0
 240              		@ frame_needed = 0, uses_anonymous_args = 0
 241              		.loc 1 96 1 is_stmt 0 view .LVU66
 242 0000 08B5     		push	{r3, lr}
 243              	.LCFI5:
 244              		.cfi_def_cfa_offset 8
 245              		.cfi_offset 3, -8
 246              		.cfi_offset 14, -4
  97:Core/Src/can.c **** 
  98:Core/Src/can.c ****   if(canHandle->Instance==CAN)
 247              		.loc 1 98 3 is_stmt 1 view .LVU67
 248              		.loc 1 98 15 is_stmt 0 view .LVU68
 249 0002 0268     		ldr	r2, [r0]
 250              		.loc 1 98 5 view .LVU69
 251 0004 094B     		ldr	r3, .L17
 252 0006 9A42     		cmp	r2, r3
 253 0008 00D0     		beq	.L16
 254              	.LVL10:
 255              	.L13:
  99:Core/Src/can.c ****   {
 100:Core/Src/can.c ****   /* USER CODE BEGIN CAN_MspDeInit 0 */
 101:Core/Src/can.c **** 
 102:Core/Src/can.c ****   /* USER CODE END CAN_MspDeInit 0 */
 103:Core/Src/can.c ****     /* Peripheral clock disable */
 104:Core/Src/can.c ****     __HAL_RCC_CAN1_CLK_DISABLE();
 105:Core/Src/can.c **** 
 106:Core/Src/can.c ****     /**CAN GPIO Configuration
 107:Core/Src/can.c ****     PA11     ------> CAN_RX
 108:Core/Src/can.c ****     PA12     ------> CAN_TX
 109:Core/Src/can.c ****     */
 110:Core/Src/can.c ****     HAL_GPIO_DeInit(GPIOA, GPIO_PIN_11|GPIO_PIN_12);
 111:Core/Src/can.c **** 
 112:Core/Src/can.c ****     /* CAN interrupt Deinit */
 113:Core/Src/can.c ****     HAL_NVIC_DisableIRQ(CAN_RX0_IRQn);
 114:Core/Src/can.c ****   /* USER CODE BEGIN CAN_MspDeInit 1 */
 115:Core/Src/can.c **** 
 116:Core/Src/can.c ****   /* USER CODE END CAN_MspDeInit 1 */
 117:Core/Src/can.c ****   }
 118:Core/Src/can.c **** }
 256              		.loc 1 118 1 view .LVU70
 257 000a 08BD     		pop	{r3, pc}
 258              	.LVL11:
 259              	.L16:
 104:Core/Src/can.c **** 
ARM GAS  C:\Users\User\AppData\Local\Temp\ccHrT0KT.s 			page 8


 260              		.loc 1 104 5 is_stmt 1 view .LVU71
 261 000c 084A     		ldr	r2, .L17+4
 262 000e D369     		ldr	r3, [r2, #28]
 263 0010 23F00073 		bic	r3, r3, #33554432
 264 0014 D361     		str	r3, [r2, #28]
 110:Core/Src/can.c **** 
 265              		.loc 1 110 5 view .LVU72
 266 0016 4FF4C051 		mov	r1, #6144
 267 001a 4FF09040 		mov	r0, #1207959552
 268              	.LVL12:
 110:Core/Src/can.c **** 
 269              		.loc 1 110 5 is_stmt 0 view .LVU73
 270 001e FFF7FEFF 		bl	HAL_GPIO_DeInit
 271              	.LVL13:
 113:Core/Src/can.c ****   /* USER CODE BEGIN CAN_MspDeInit 1 */
 272              		.loc 1 113 5 is_stmt 1 view .LVU74
 273 0022 1420     		movs	r0, #20
 274 0024 FFF7FEFF 		bl	HAL_NVIC_DisableIRQ
 275              	.LVL14:
 276              		.loc 1 118 1 is_stmt 0 view .LVU75
 277 0028 EFE7     		b	.L13
 278              	.L18:
 279 002a 00BF     		.align	2
 280              	.L17:
 281 002c 00640040 		.word	1073767424
 282 0030 00100240 		.word	1073876992
 283              		.cfi_endproc
 284              	.LFE125:
 286              		.global	hcan
 287              		.section	.bss.hcan,"aw",%nobits
 288              		.align	2
 289              		.set	.LANCHOR0,. + 0
 292              	hcan:
 293 0000 00000000 		.space	40
 293      00000000 
 293      00000000 
 293      00000000 
 293      00000000 
 294              		.text
 295              	.Letext0:
 296              		.file 2 "Drivers/CMSIS/Device/ST/STM32F3xx/Include/stm32f303x8.h"
 297              		.file 3 "c:\\users\\user\\appdata\\roaming\\code\\user\\globalstorage\\bmd.stm32-for-vscode\\@xpac
 298              		.file 4 "c:\\users\\user\\appdata\\roaming\\code\\user\\globalstorage\\bmd.stm32-for-vscode\\@xpac
 299              		.file 5 "Drivers/CMSIS/Device/ST/STM32F3xx/Include/stm32f3xx.h"
 300              		.file 6 "Drivers/STM32F3xx_HAL_Driver/Inc/stm32f3xx_hal_def.h"
 301              		.file 7 "Drivers/STM32F3xx_HAL_Driver/Inc/stm32f3xx_hal_gpio.h"
 302              		.file 8 "Drivers/STM32F3xx_HAL_Driver/Inc/stm32f3xx_hal_can.h"
 303              		.file 9 "Drivers/STM32F3xx_HAL_Driver/Inc/stm32f3xx_hal_cortex.h"
 304              		.file 10 "Core/Inc/can.h"
 305              		.file 11 "Core/Inc/main.h"
ARM GAS  C:\Users\User\AppData\Local\Temp\ccHrT0KT.s 			page 9

