ARM GAS  C:\Users\User\AppData\Local\Temp\ccmyY5Ud.s 			page 1


   1              		.cpu cortex-m4
   2              		.arch armv7e-m
   3              		.fpu fpv4-sp-d16
   4              		.eabi_attribute 27, 1
   5              		.eabi_attribute 28, 1
   6              		.eabi_attribute 20, 1
   7              		.eabi_attribute 21, 1
   8              		.eabi_attribute 23, 3
   9              		.eabi_attribute 24, 1
  10              		.eabi_attribute 25, 1
  11              		.eabi_attribute 26, 1
  12              		.eabi_attribute 30, 1
  13              		.eabi_attribute 34, 1
  14              		.eabi_attribute 18, 4
  15              		.file	"main.c"
  16              		.text
  17              	.Ltext0:
  18              		.cfi_sections	.debug_frame
  19              		.section	.text.RBlinker,"ax",%progbits
  20              		.align	1
  21              		.global	RBlinker
  22              		.syntax unified
  23              		.thumb
  24              		.thumb_func
  26              	RBlinker:
  27              	.LFB126:
  28              		.file 1 "Core/Src/main.c"
   1:Core/Src/main.c **** /* USER CODE BEGIN Header */
   2:Core/Src/main.c **** /**
   3:Core/Src/main.c ****   ******************************************************************************
   4:Core/Src/main.c ****   * @file           : main.c
   5:Core/Src/main.c ****   * @brief          : Main program body
   6:Core/Src/main.c ****   ******************************************************************************
   7:Core/Src/main.c ****   * @attention
   8:Core/Src/main.c ****   *
   9:Core/Src/main.c ****   * Copyright (c) 2022 STMicroelectronics.
  10:Core/Src/main.c ****   * All rights reserved.
  11:Core/Src/main.c ****   *
  12:Core/Src/main.c ****   * This software is licensed under terms that can be found in the LICENSE file
  13:Core/Src/main.c ****   * in the root directory of this software component.
  14:Core/Src/main.c ****   * If no LICENSE file comes with this software, it is provided AS-IS.
  15:Core/Src/main.c ****   *
  16:Core/Src/main.c ****   ******************************************************************************
  17:Core/Src/main.c ****   */
  18:Core/Src/main.c **** /* USER CODE END Header */
  19:Core/Src/main.c **** /* Includes ------------------------------------------------------------------*/
  20:Core/Src/main.c **** #include "main.h"
  21:Core/Src/main.c **** #include "can.h"
  22:Core/Src/main.c **** #include "usart.h"
  23:Core/Src/main.c **** #include "gpio.h"
  24:Core/Src/main.c **** 
  25:Core/Src/main.c **** /* Private includes ----------------------------------------------------------*/
  26:Core/Src/main.c **** /* USER CODE BEGIN Includes */
  27:Core/Src/main.c **** 
  28:Core/Src/main.c **** 
  29:Core/Src/main.c **** /* USER CODE END Includes */
  30:Core/Src/main.c **** 
ARM GAS  C:\Users\User\AppData\Local\Temp\ccmyY5Ud.s 			page 2


  31:Core/Src/main.c **** /* Private typedef -----------------------------------------------------------*/
  32:Core/Src/main.c **** /* USER CODE BEGIN PTD */
  33:Core/Src/main.c **** 
  34:Core/Src/main.c **** /* USER CODE END PTD */
  35:Core/Src/main.c **** 
  36:Core/Src/main.c **** /* Private define ------------------------------------------------------------*/
  37:Core/Src/main.c **** /* USER CODE BEGIN PD */
  38:Core/Src/main.c **** /* USER CODE END PD */
  39:Core/Src/main.c **** 
  40:Core/Src/main.c **** /* Private macro -------------------------------------------------------------*/
  41:Core/Src/main.c **** /* USER CODE BEGIN PM */
  42:Core/Src/main.c **** 
  43:Core/Src/main.c **** /* USER CODE END PM */
  44:Core/Src/main.c **** 
  45:Core/Src/main.c **** /* Private variables ---------------------------------------------------------*/
  46:Core/Src/main.c **** 
  47:Core/Src/main.c **** /* USER CODE BEGIN PV */
  48:Core/Src/main.c **** CAN_RxHeaderTypeDef rxHeader;
  49:Core/Src/main.c **** CAN_TxHeaderTypeDef txHeader;
  50:Core/Src/main.c **** uint8_t rxData[8] = {0,0,0,0,0,0,0,0};
  51:Core/Src/main.c **** uint8_t txData[8] = {0,0,0,0,0,0,0,0};
  52:Core/Src/main.c **** CAN_FilterTypeDef canfil;
  53:Core/Src/main.c **** uint32_t canRxMailbox;
  54:Core/Src/main.c **** uint32_t canTxMailbox;
  55:Core/Src/main.c **** uint32_t RXID;
  56:Core/Src/main.c **** uint32_t INSERTHERE; //This is a random variable that needs changing of both type and content. Only
  57:Core/Src/main.c **** /* USER CODE END PV */
  58:Core/Src/main.c **** 
  59:Core/Src/main.c **** /* Private function prototypes -----------------------------------------------*/
  60:Core/Src/main.c **** void SystemClock_Config(void);
  61:Core/Src/main.c **** /* USER CODE BEGIN PFP */
  62:Core/Src/main.c **** 
  63:Core/Src/main.c **** /* USER CODE END PFP */
  64:Core/Src/main.c **** 
  65:Core/Src/main.c **** /* Private user code ---------------------------------------------------------*/
  66:Core/Src/main.c **** /* USER CODE BEGIN 0 */
  67:Core/Src/main.c **** 
  68:Core/Src/main.c **** /* USER CODE END 0 */
  69:Core/Src/main.c **** 
  70:Core/Src/main.c **** /**
  71:Core/Src/main.c ****   * @brief  The application entry point.
  72:Core/Src/main.c ****   * @retval int
  73:Core/Src/main.c ****   */
  74:Core/Src/main.c **** int main(void)
  75:Core/Src/main.c **** {
  76:Core/Src/main.c ****   /* USER CODE BEGIN 1 */
  77:Core/Src/main.c **** 
  78:Core/Src/main.c ****   /* USER CODE END 1 */
  79:Core/Src/main.c **** 
  80:Core/Src/main.c ****   /* MCU Configuration--------------------------------------------------------*/
  81:Core/Src/main.c **** 
  82:Core/Src/main.c ****   /* Reset of all peripherals, Initializes the Flash interface and the Systick. */
  83:Core/Src/main.c ****   HAL_Init();
  84:Core/Src/main.c **** 
  85:Core/Src/main.c ****   /* USER CODE BEGIN Init */
  86:Core/Src/main.c **** 
  87:Core/Src/main.c **** 
ARM GAS  C:\Users\User\AppData\Local\Temp\ccmyY5Ud.s 			page 3


  88:Core/Src/main.c ****   //initialise CAN filters
  89:Core/Src/main.c ****   canfil.FilterBank = 0;
  90:Core/Src/main.c ****   canfil.FilterMode = CAN_FILTERMODE_IDMASK;
  91:Core/Src/main.c ****   canfil.FilterFIFOAssignment = CAN_RX_FIFO0;
  92:Core/Src/main.c ****   canfil.FilterIdHigh = 0;
  93:Core/Src/main.c ****   canfil.FilterIdLow = 0;
  94:Core/Src/main.c ****   canfil.FilterMaskIdHigh = 0;
  95:Core/Src/main.c ****   canfil.FilterMaskIdLow = 0;
  96:Core/Src/main.c ****   canfil.FilterScale = CAN_FILTERSCALE_32BIT;
  97:Core/Src/main.c ****   canfil.FilterActivation = ENABLE;
  98:Core/Src/main.c ****   canfil.SlaveStartFilterBank = 14;
  99:Core/Src/main.c **** 
 100:Core/Src/main.c **** 
 101:Core/Src/main.c ****   //setup CAN header for transmitting messages
 102:Core/Src/main.c ****   txHeader.DLC = 8; // Number of bites to be transmitted max- 8
 103:Core/Src/main.c ****   txHeader.IDE = CAN_ID_STD;
 104:Core/Src/main.c ****   txHeader.RTR = CAN_RTR_DATA;
 105:Core/Src/main.c ****   txHeader.StdId = 0x030;
 106:Core/Src/main.c ****   txHeader.ExtId = 0x02;
 107:Core/Src/main.c ****   txHeader.TransmitGlobalTime = DISABLE;
 108:Core/Src/main.c **** 
 109:Core/Src/main.c **** 
 110:Core/Src/main.c ****   //initialize CAN bus
 111:Core/Src/main.c ****   HAL_CAN_ConfigFilter(&hcan, &canfil);
 112:Core/Src/main.c ****   HAL_CAN_Start(&hcan);
 113:Core/Src/main.c ****   HAL_CAN_ActivateNotification(&hcan, CAN_IT_RX_FIFO0_MSG_PENDING);
 114:Core/Src/main.c **** 
 115:Core/Src/main.c ****   /* USER CODE END Init */
 116:Core/Src/main.c **** 
 117:Core/Src/main.c ****   /* Configure the system clock */
 118:Core/Src/main.c ****   SystemClock_Config();
 119:Core/Src/main.c **** 
 120:Core/Src/main.c ****   /* USER CODE BEGIN SysInit */
 121:Core/Src/main.c **** 
 122:Core/Src/main.c ****   /* USER CODE END SysInit */
 123:Core/Src/main.c **** 
 124:Core/Src/main.c ****   /* Initialize all configured peripherals */
 125:Core/Src/main.c ****   MX_GPIO_Init();
 126:Core/Src/main.c ****   MX_CAN_Init();
 127:Core/Src/main.c ****   MX_USART2_UART_Init();
 128:Core/Src/main.c ****   /* USER CODE BEGIN 2 */
 129:Core/Src/main.c **** 
 130:Core/Src/main.c ****   /* USER CODE END 2 */
 131:Core/Src/main.c **** 
 132:Core/Src/main.c ****   /* Infinite loop */
 133:Core/Src/main.c ****   /* USER CODE BEGIN WHILE */
 134:Core/Src/main.c ****   while (1)
 135:Core/Src/main.c ****   {
 136:Core/Src/main.c ****     /* USER CODE END WHILE */
 137:Core/Src/main.c ****     heartbeat();
 138:Core/Src/main.c ****     /* USER CODE BEGIN 3 */
 139:Core/Src/main.c ****   }
 140:Core/Src/main.c ****   /* USER CODE END 3 */
 141:Core/Src/main.c **** }
 142:Core/Src/main.c **** 
 143:Core/Src/main.c **** /**
 144:Core/Src/main.c ****   * @brief System Clock Configuration
ARM GAS  C:\Users\User\AppData\Local\Temp\ccmyY5Ud.s 			page 4


 145:Core/Src/main.c ****   * @retval None
 146:Core/Src/main.c ****   */
 147:Core/Src/main.c **** void SystemClock_Config(void)
 148:Core/Src/main.c **** {
 149:Core/Src/main.c ****   RCC_OscInitTypeDef RCC_OscInitStruct = {0};
 150:Core/Src/main.c ****   RCC_ClkInitTypeDef RCC_ClkInitStruct = {0};
 151:Core/Src/main.c **** 
 152:Core/Src/main.c ****   /** Initializes the RCC Oscillators according to the specified parameters
 153:Core/Src/main.c ****   * in the RCC_OscInitTypeDef structure.
 154:Core/Src/main.c ****   */
 155:Core/Src/main.c ****   RCC_OscInitStruct.OscillatorType = RCC_OSCILLATORTYPE_HSE;
 156:Core/Src/main.c ****   RCC_OscInitStruct.HSEState = RCC_HSE_ON;
 157:Core/Src/main.c ****   RCC_OscInitStruct.HSEPredivValue = RCC_HSE_PREDIV_DIV1;
 158:Core/Src/main.c ****   RCC_OscInitStruct.HSIState = RCC_HSI_ON;
 159:Core/Src/main.c ****   RCC_OscInitStruct.PLL.PLLState = RCC_PLL_ON;
 160:Core/Src/main.c ****   RCC_OscInitStruct.PLL.PLLSource = RCC_PLLSOURCE_HSE;
 161:Core/Src/main.c ****   RCC_OscInitStruct.PLL.PLLMUL = RCC_PLL_MUL2;
 162:Core/Src/main.c ****   if (HAL_RCC_OscConfig(&RCC_OscInitStruct) != HAL_OK)
 163:Core/Src/main.c ****   {
 164:Core/Src/main.c ****     Error_Handler();
 165:Core/Src/main.c ****   }
 166:Core/Src/main.c **** 
 167:Core/Src/main.c ****   /** Initializes the CPU, AHB and APB buses clocks
 168:Core/Src/main.c ****   */
 169:Core/Src/main.c ****   RCC_ClkInitStruct.ClockType = RCC_CLOCKTYPE_HCLK|RCC_CLOCKTYPE_SYSCLK
 170:Core/Src/main.c ****                               |RCC_CLOCKTYPE_PCLK1|RCC_CLOCKTYPE_PCLK2;
 171:Core/Src/main.c ****   RCC_ClkInitStruct.SYSCLKSource = RCC_SYSCLKSOURCE_PLLCLK;
 172:Core/Src/main.c ****   RCC_ClkInitStruct.AHBCLKDivider = RCC_SYSCLK_DIV1;
 173:Core/Src/main.c ****   RCC_ClkInitStruct.APB1CLKDivider = RCC_HCLK_DIV1;
 174:Core/Src/main.c ****   RCC_ClkInitStruct.APB2CLKDivider = RCC_HCLK_DIV1;
 175:Core/Src/main.c **** 
 176:Core/Src/main.c ****   if (HAL_RCC_ClockConfig(&RCC_ClkInitStruct, FLASH_LATENCY_0) != HAL_OK)
 177:Core/Src/main.c ****   {
 178:Core/Src/main.c ****     Error_Handler();
 179:Core/Src/main.c ****   }
 180:Core/Src/main.c **** }
 181:Core/Src/main.c **** 
 182:Core/Src/main.c **** /* USER CODE BEGIN 4 */
 183:Core/Src/main.c **** void HAL_CAN_RxFifo0MsgPendingCallback(CAN_HandleTypeDef *hcan1){
 184:Core/Src/main.c ****   if(HAL_CAN_GetRxMessage(&hcan, 0, &rxHeader, rxData) != HAL_OK){
 185:Core/Src/main.c ****     Error_Handler();
 186:Core/Src/main.c ****   }
 187:Core/Src/main.c **** }
 188:Core/Src/main.c **** 
 189:Core/Src/main.c **** void RBlinker(){
  29              		.loc 1 189 16 view -0
  30              		.cfi_startproc
  31              		@ args = 0, pretend = 0, frame = 0
  32              		@ frame_needed = 0, uses_anonymous_args = 0
  33 0000 08B5     		push	{r3, lr}
  34              	.LCFI0:
  35              		.cfi_def_cfa_offset 8
  36              		.cfi_offset 3, -8
  37              		.cfi_offset 14, -4
  38              	.L2:
 190:Core/Src/main.c **** while(1){
  39              		.loc 1 190 1 view .LVU1
ARM GAS  C:\Users\User\AppData\Local\Temp\ccmyY5Ud.s 			page 5


 191:Core/Src/main.c ****   HAL_GPIO_TogglePin(RINDIC_GPIO_Port, RINDIC_Pin);
  40              		.loc 1 191 3 view .LVU2
  41 0002 4FF40071 		mov	r1, #512
  42 0006 4FF09040 		mov	r0, #1207959552
  43 000a FFF7FEFF 		bl	HAL_GPIO_TogglePin
  44              	.LVL0:
 192:Core/Src/main.c ****   HAL_Delay(750);
  45              		.loc 1 192 3 view .LVU3
  46 000e 40F2EE20 		movw	r0, #750
  47 0012 FFF7FEFF 		bl	HAL_Delay
  48              	.LVL1:
 193:Core/Src/main.c ****   if(rxData == INSERTHERE){
  49              		.loc 1 193 3 view .LVU4
  50              		.loc 1 193 13 is_stmt 0 view .LVU5
  51 0016 064B     		ldr	r3, .L4
  52 0018 1A68     		ldr	r2, [r3]
  53              		.loc 1 193 5 view .LVU6
  54 001a 064B     		ldr	r3, .L4+4
  55 001c 9A42     		cmp	r2, r3
  56 001e F0D1     		bne	.L2
 194:Core/Src/main.c ****     HAL_GPIO_WritePin(RINDIC_GPIO_Port, RINDIC_Pin, RESET);
  57              		.loc 1 194 5 is_stmt 1 view .LVU7
  58 0020 0022     		movs	r2, #0
  59 0022 4FF40071 		mov	r1, #512
  60 0026 4FF09040 		mov	r0, #1207959552
  61 002a FFF7FEFF 		bl	HAL_GPIO_WritePin
  62              	.LVL2:
 195:Core/Src/main.c ****     return;
  63              		.loc 1 195 5 view .LVU8
 196:Core/Src/main.c ****   }
 197:Core/Src/main.c **** }
 198:Core/Src/main.c **** }
  64              		.loc 1 198 1 is_stmt 0 view .LVU9
  65 002e 08BD     		pop	{r3, pc}
  66              	.L5:
  67              		.align	2
  68              	.L4:
  69 0030 00000000 		.word	.LANCHOR0
  70 0034 00000000 		.word	.LANCHOR1
  71              		.cfi_endproc
  72              	.LFE126:
  74              		.section	.text.LBlinker,"ax",%progbits
  75              		.align	1
  76              		.global	LBlinker
  77              		.syntax unified
  78              		.thumb
  79              		.thumb_func
  81              	LBlinker:
  82              	.LFB127:
 199:Core/Src/main.c **** 
 200:Core/Src/main.c **** void LBlinker(){
  83              		.loc 1 200 16 is_stmt 1 view -0
  84              		.cfi_startproc
  85              		@ args = 0, pretend = 0, frame = 0
  86              		@ frame_needed = 0, uses_anonymous_args = 0
  87 0000 08B5     		push	{r3, lr}
  88              	.LCFI1:
ARM GAS  C:\Users\User\AppData\Local\Temp\ccmyY5Ud.s 			page 6


  89              		.cfi_def_cfa_offset 8
  90              		.cfi_offset 3, -8
  91              		.cfi_offset 14, -4
  92              	.L7:
 201:Core/Src/main.c **** while(1){
  93              		.loc 1 201 1 view .LVU11
 202:Core/Src/main.c ****   HAL_GPIO_TogglePin(LINDIC_GPIO_Port, LINDIC_Pin);
  94              		.loc 1 202 3 view .LVU12
  95 0002 4FF48061 		mov	r1, #1024
  96 0006 4FF09040 		mov	r0, #1207959552
  97 000a FFF7FEFF 		bl	HAL_GPIO_TogglePin
  98              	.LVL3:
 203:Core/Src/main.c ****   HAL_Delay(750);
  99              		.loc 1 203 3 view .LVU13
 100 000e 40F2EE20 		movw	r0, #750
 101 0012 FFF7FEFF 		bl	HAL_Delay
 102              	.LVL4:
 204:Core/Src/main.c ****   if(rxData == INSERTHERE){
 103              		.loc 1 204 3 view .LVU14
 104              		.loc 1 204 13 is_stmt 0 view .LVU15
 105 0016 064B     		ldr	r3, .L9
 106 0018 1A68     		ldr	r2, [r3]
 107              		.loc 1 204 5 view .LVU16
 108 001a 064B     		ldr	r3, .L9+4
 109 001c 9A42     		cmp	r2, r3
 110 001e F0D1     		bne	.L7
 205:Core/Src/main.c ****     HAL_GPIO_WritePin(LINDIC_GPIO_Port, LINDIC_Pin, RESET);
 111              		.loc 1 205 5 is_stmt 1 view .LVU17
 112 0020 0022     		movs	r2, #0
 113 0022 4FF48061 		mov	r1, #1024
 114 0026 4FF09040 		mov	r0, #1207959552
 115 002a FFF7FEFF 		bl	HAL_GPIO_WritePin
 116              	.LVL5:
 206:Core/Src/main.c ****     return;
 117              		.loc 1 206 5 view .LVU18
 207:Core/Src/main.c ****   }
 208:Core/Src/main.c **** }
 209:Core/Src/main.c **** }
 118              		.loc 1 209 1 is_stmt 0 view .LVU19
 119 002e 08BD     		pop	{r3, pc}
 120              	.L10:
 121              		.align	2
 122              	.L9:
 123 0030 00000000 		.word	.LANCHOR0
 124 0034 00000000 		.word	.LANCHOR1
 125              		.cfi_endproc
 126              	.LFE127:
 128              		.section	.text.Brake,"ax",%progbits
 129              		.align	1
 130              		.global	Brake
 131              		.syntax unified
 132              		.thumb
 133              		.thumb_func
 135              	Brake:
 136              	.LFB128:
 210:Core/Src/main.c **** 
 211:Core/Src/main.c **** void Brake(){
ARM GAS  C:\Users\User\AppData\Local\Temp\ccmyY5Ud.s 			page 7


 137              		.loc 1 211 13 is_stmt 1 view -0
 138              		.cfi_startproc
 139              		@ args = 0, pretend = 0, frame = 0
 140              		@ frame_needed = 0, uses_anonymous_args = 0
 141 0000 08B5     		push	{r3, lr}
 142              	.LCFI2:
 143              		.cfi_def_cfa_offset 8
 144              		.cfi_offset 3, -8
 145              		.cfi_offset 14, -4
 212:Core/Src/main.c **** HAL_GPIO_WritePin(BRAKE_GPIO_Port, BRAKE_Pin, SET);
 146              		.loc 1 212 1 view .LVU21
 147 0002 0122     		movs	r2, #1
 148 0004 1146     		mov	r1, r2
 149 0006 0248     		ldr	r0, .L13
 150 0008 FFF7FEFF 		bl	HAL_GPIO_WritePin
 151              	.LVL6:
 213:Core/Src/main.c **** return;
 152              		.loc 1 213 1 view .LVU22
 214:Core/Src/main.c **** }
 153              		.loc 1 214 1 is_stmt 0 view .LVU23
 154 000c 08BD     		pop	{r3, pc}
 155              	.L14:
 156 000e 00BF     		.align	2
 157              	.L13:
 158 0010 00040048 		.word	1207960576
 159              		.cfi_endproc
 160              	.LFE128:
 162              		.section	.text.BrakeR,"ax",%progbits
 163              		.align	1
 164              		.global	BrakeR
 165              		.syntax unified
 166              		.thumb
 167              		.thumb_func
 169              	BrakeR:
 170              	.LFB129:
 215:Core/Src/main.c **** 
 216:Core/Src/main.c **** void BrakeR(){
 171              		.loc 1 216 14 is_stmt 1 view -0
 172              		.cfi_startproc
 173              		@ args = 0, pretend = 0, frame = 0
 174              		@ frame_needed = 0, uses_anonymous_args = 0
 175 0000 08B5     		push	{r3, lr}
 176              	.LCFI3:
 177              		.cfi_def_cfa_offset 8
 178              		.cfi_offset 3, -8
 179              		.cfi_offset 14, -4
 217:Core/Src/main.c **** HAL_GPIO_WritePin(BRAKE_GPIO_Port, BRAKE_Pin, RESET);
 180              		.loc 1 217 1 view .LVU25
 181 0002 0022     		movs	r2, #0
 182 0004 0121     		movs	r1, #1
 183 0006 0248     		ldr	r0, .L17
 184 0008 FFF7FEFF 		bl	HAL_GPIO_WritePin
 185              	.LVL7:
 218:Core/Src/main.c **** return;
 186              		.loc 1 218 1 view .LVU26
 219:Core/Src/main.c **** }
 187              		.loc 1 219 1 is_stmt 0 view .LVU27
ARM GAS  C:\Users\User\AppData\Local\Temp\ccmyY5Ud.s 			page 8


 188 000c 08BD     		pop	{r3, pc}
 189              	.L18:
 190 000e 00BF     		.align	2
 191              	.L17:
 192 0010 00040048 		.word	1207960576
 193              		.cfi_endproc
 194              	.LFE129:
 196              		.section	.text.FogF,"ax",%progbits
 197              		.align	1
 198              		.global	FogF
 199              		.syntax unified
 200              		.thumb
 201              		.thumb_func
 203              	FogF:
 204              	.LFB130:
 220:Core/Src/main.c **** 
 221:Core/Src/main.c **** void FogF(){
 205              		.loc 1 221 12 is_stmt 1 view -0
 206              		.cfi_startproc
 207              		@ args = 0, pretend = 0, frame = 0
 208              		@ frame_needed = 0, uses_anonymous_args = 0
 209 0000 08B5     		push	{r3, lr}
 210              	.LCFI4:
 211              		.cfi_def_cfa_offset 8
 212              		.cfi_offset 3, -8
 213              		.cfi_offset 14, -4
 222:Core/Src/main.c **** HAL_GPIO_WritePin(FRONTFOG_GPIO_Port, FRONTFOG_Pin, SET);
 214              		.loc 1 222 1 view .LVU29
 215 0002 0122     		movs	r2, #1
 216 0004 4FF48071 		mov	r1, #256
 217 0008 4FF09040 		mov	r0, #1207959552
 218 000c FFF7FEFF 		bl	HAL_GPIO_WritePin
 219              	.LVL8:
 223:Core/Src/main.c **** return;
 220              		.loc 1 223 1 view .LVU30
 224:Core/Src/main.c **** }
 221              		.loc 1 224 1 is_stmt 0 view .LVU31
 222 0010 08BD     		pop	{r3, pc}
 223              		.cfi_endproc
 224              	.LFE130:
 226              		.section	.text.FogFR,"ax",%progbits
 227              		.align	1
 228              		.global	FogFR
 229              		.syntax unified
 230              		.thumb
 231              		.thumb_func
 233              	FogFR:
 234              	.LFB131:
 225:Core/Src/main.c **** 
 226:Core/Src/main.c **** void FogFR(){
 235              		.loc 1 226 13 is_stmt 1 view -0
 236              		.cfi_startproc
 237              		@ args = 0, pretend = 0, frame = 0
 238              		@ frame_needed = 0, uses_anonymous_args = 0
 239 0000 08B5     		push	{r3, lr}
 240              	.LCFI5:
 241              		.cfi_def_cfa_offset 8
ARM GAS  C:\Users\User\AppData\Local\Temp\ccmyY5Ud.s 			page 9


 242              		.cfi_offset 3, -8
 243              		.cfi_offset 14, -4
 227:Core/Src/main.c **** HAL_GPIO_WritePin(FRONTFOG_GPIO_Port, FRONTFOG_Pin, RESET);
 244              		.loc 1 227 1 view .LVU33
 245 0002 0022     		movs	r2, #0
 246 0004 4FF48071 		mov	r1, #256
 247 0008 4FF09040 		mov	r0, #1207959552
 248 000c FFF7FEFF 		bl	HAL_GPIO_WritePin
 249              	.LVL9:
 228:Core/Src/main.c **** return;
 250              		.loc 1 228 1 view .LVU34
 229:Core/Src/main.c **** }
 251              		.loc 1 229 1 is_stmt 0 view .LVU35
 252 0010 08BD     		pop	{r3, pc}
 253              		.cfi_endproc
 254              	.LFE131:
 256              		.section	.text.FogR,"ax",%progbits
 257              		.align	1
 258              		.global	FogR
 259              		.syntax unified
 260              		.thumb
 261              		.thumb_func
 263              	FogR:
 264              	.LFB132:
 230:Core/Src/main.c **** 
 231:Core/Src/main.c **** void FogR(){
 265              		.loc 1 231 12 is_stmt 1 view -0
 266              		.cfi_startproc
 267              		@ args = 0, pretend = 0, frame = 0
 268              		@ frame_needed = 0, uses_anonymous_args = 0
 269 0000 08B5     		push	{r3, lr}
 270              	.LCFI6:
 271              		.cfi_def_cfa_offset 8
 272              		.cfi_offset 3, -8
 273              		.cfi_offset 14, -4
 232:Core/Src/main.c **** HAL_GPIO_WritePin(REARFOG_GPIO_Port, REARFOG_Pin, SET);
 274              		.loc 1 232 1 view .LVU37
 275 0002 0122     		movs	r2, #1
 276 0004 0221     		movs	r1, #2
 277 0006 0248     		ldr	r0, .L25
 278 0008 FFF7FEFF 		bl	HAL_GPIO_WritePin
 279              	.LVL10:
 233:Core/Src/main.c **** return;
 280              		.loc 1 233 1 view .LVU38
 234:Core/Src/main.c **** }
 281              		.loc 1 234 1 is_stmt 0 view .LVU39
 282 000c 08BD     		pop	{r3, pc}
 283              	.L26:
 284 000e 00BF     		.align	2
 285              	.L25:
 286 0010 00040048 		.word	1207960576
 287              		.cfi_endproc
 288              	.LFE132:
 290              		.section	.text.FogRR,"ax",%progbits
 291              		.align	1
 292              		.global	FogRR
 293              		.syntax unified
ARM GAS  C:\Users\User\AppData\Local\Temp\ccmyY5Ud.s 			page 10


 294              		.thumb
 295              		.thumb_func
 297              	FogRR:
 298              	.LFB133:
 235:Core/Src/main.c **** 
 236:Core/Src/main.c **** 
 237:Core/Src/main.c **** void FogRR(){
 299              		.loc 1 237 13 is_stmt 1 view -0
 300              		.cfi_startproc
 301              		@ args = 0, pretend = 0, frame = 0
 302              		@ frame_needed = 0, uses_anonymous_args = 0
 303 0000 08B5     		push	{r3, lr}
 304              	.LCFI7:
 305              		.cfi_def_cfa_offset 8
 306              		.cfi_offset 3, -8
 307              		.cfi_offset 14, -4
 238:Core/Src/main.c **** HAL_GPIO_WritePin(REARFOG_GPIO_Port, REARFOG_Pin, RESET);
 308              		.loc 1 238 1 view .LVU41
 309 0002 0022     		movs	r2, #0
 310 0004 0221     		movs	r1, #2
 311 0006 0248     		ldr	r0, .L29
 312 0008 FFF7FEFF 		bl	HAL_GPIO_WritePin
 313              	.LVL11:
 239:Core/Src/main.c **** return;
 314              		.loc 1 239 1 view .LVU42
 240:Core/Src/main.c **** }
 315              		.loc 1 240 1 is_stmt 0 view .LVU43
 316 000c 08BD     		pop	{r3, pc}
 317              	.L30:
 318 000e 00BF     		.align	2
 319              	.L29:
 320 0010 00040048 		.word	1207960576
 321              		.cfi_endproc
 322              	.LFE133:
 324              		.section	.text.Day,"ax",%progbits
 325              		.align	1
 326              		.global	Day
 327              		.syntax unified
 328              		.thumb
 329              		.thumb_func
 331              	Day:
 332              	.LFB134:
 241:Core/Src/main.c **** 
 242:Core/Src/main.c **** void Day(){
 333              		.loc 1 242 11 is_stmt 1 view -0
 334              		.cfi_startproc
 335              		@ args = 0, pretend = 0, frame = 0
 336              		@ frame_needed = 0, uses_anonymous_args = 0
 337 0000 08B5     		push	{r3, lr}
 338              	.LCFI8:
 339              		.cfi_def_cfa_offset 8
 340              		.cfi_offset 3, -8
 341              		.cfi_offset 14, -4
 243:Core/Src/main.c **** HAL_GPIO_WritePin(FROTDAY_GPIO_Port, FROTDAY_Pin, SET);
 342              		.loc 1 243 1 view .LVU45
 343 0002 0122     		movs	r2, #1
 344 0004 0221     		movs	r1, #2
ARM GAS  C:\Users\User\AppData\Local\Temp\ccmyY5Ud.s 			page 11


 345 0006 4FF09040 		mov	r0, #1207959552
 346 000a FFF7FEFF 		bl	HAL_GPIO_WritePin
 347              	.LVL12:
 244:Core/Src/main.c **** return;
 348              		.loc 1 244 1 view .LVU46
 245:Core/Src/main.c **** }
 349              		.loc 1 245 1 is_stmt 0 view .LVU47
 350 000e 08BD     		pop	{r3, pc}
 351              		.cfi_endproc
 352              	.LFE134:
 354              		.section	.text.DayR,"ax",%progbits
 355              		.align	1
 356              		.global	DayR
 357              		.syntax unified
 358              		.thumb
 359              		.thumb_func
 361              	DayR:
 362              	.LFB135:
 246:Core/Src/main.c **** 
 247:Core/Src/main.c **** 
 248:Core/Src/main.c **** void DayR(){
 363              		.loc 1 248 12 is_stmt 1 view -0
 364              		.cfi_startproc
 365              		@ args = 0, pretend = 0, frame = 0
 366              		@ frame_needed = 0, uses_anonymous_args = 0
 367 0000 08B5     		push	{r3, lr}
 368              	.LCFI9:
 369              		.cfi_def_cfa_offset 8
 370              		.cfi_offset 3, -8
 371              		.cfi_offset 14, -4
 249:Core/Src/main.c **** HAL_GPIO_WritePin(FROTDAY_GPIO_Port, FROTDAY_Pin, RESET);
 372              		.loc 1 249 1 view .LVU49
 373 0002 0022     		movs	r2, #0
 374 0004 0221     		movs	r1, #2
 375 0006 4FF09040 		mov	r0, #1207959552
 376 000a FFF7FEFF 		bl	HAL_GPIO_WritePin
 377              	.LVL13:
 250:Core/Src/main.c **** return;
 378              		.loc 1 250 1 view .LVU50
 251:Core/Src/main.c **** }
 379              		.loc 1 251 1 is_stmt 0 view .LVU51
 380 000e 08BD     		pop	{r3, pc}
 381              		.cfi_endproc
 382              	.LFE135:
 384              		.section	.text.safe,"ax",%progbits
 385              		.align	1
 386              		.global	safe
 387              		.syntax unified
 388              		.thumb
 389              		.thumb_func
 391              	safe:
 392              	.LFB136:
 252:Core/Src/main.c **** 
 253:Core/Src/main.c **** void safe(){
 393              		.loc 1 253 12 is_stmt 1 view -0
 394              		.cfi_startproc
 395              		@ args = 0, pretend = 0, frame = 0
ARM GAS  C:\Users\User\AppData\Local\Temp\ccmyY5Ud.s 			page 12


 396              		@ frame_needed = 0, uses_anonymous_args = 0
 397 0000 08B5     		push	{r3, lr}
 398              	.LCFI10:
 399              		.cfi_def_cfa_offset 8
 400              		.cfi_offset 3, -8
 401              		.cfi_offset 14, -4
 402              	.L36:
 254:Core/Src/main.c **** while(1){
 403              		.loc 1 254 1 view .LVU53
 255:Core/Src/main.c ****   HAL_GPIO_TogglePin(SAFELIGHT_GPIO_Port, SAFELIGHT_Pin);
 404              		.loc 1 255 3 view .LVU54
 405 0002 1021     		movs	r1, #16
 406 0004 0848     		ldr	r0, .L38
 407 0006 FFF7FEFF 		bl	HAL_GPIO_TogglePin
 408              	.LVL14:
 256:Core/Src/main.c ****   HAL_Delay(750);
 409              		.loc 1 256 3 view .LVU55
 410 000a 40F2EE20 		movw	r0, #750
 411 000e FFF7FEFF 		bl	HAL_Delay
 412              	.LVL15:
 257:Core/Src/main.c ****   if(rxData == INSERTHERE){
 413              		.loc 1 257 3 view .LVU56
 414              		.loc 1 257 13 is_stmt 0 view .LVU57
 415 0012 064B     		ldr	r3, .L38+4
 416 0014 1A68     		ldr	r2, [r3]
 417              		.loc 1 257 5 view .LVU58
 418 0016 064B     		ldr	r3, .L38+8
 419 0018 9A42     		cmp	r2, r3
 420 001a F2D1     		bne	.L36
 258:Core/Src/main.c ****     HAL_GPIO_WritePin(SAFELIGHT_GPIO_Port, SAFELIGHT_Pin, RESET);
 421              		.loc 1 258 5 is_stmt 1 view .LVU59
 422 001c 0022     		movs	r2, #0
 423 001e 1021     		movs	r1, #16
 424 0020 0148     		ldr	r0, .L38
 425 0022 FFF7FEFF 		bl	HAL_GPIO_WritePin
 426              	.LVL16:
 259:Core/Src/main.c ****     return;
 427              		.loc 1 259 5 view .LVU60
 260:Core/Src/main.c ****   }
 261:Core/Src/main.c **** }
 262:Core/Src/main.c **** }
 428              		.loc 1 262 1 is_stmt 0 view .LVU61
 429 0026 08BD     		pop	{r3, pc}
 430              	.L39:
 431              		.align	2
 432              	.L38:
 433 0028 00040048 		.word	1207960576
 434 002c 00000000 		.word	.LANCHOR0
 435 0030 00000000 		.word	.LANCHOR1
 436              		.cfi_endproc
 437              	.LFE136:
 439              		.section	.text.Hazards,"ax",%progbits
 440              		.align	1
 441              		.global	Hazards
 442              		.syntax unified
 443              		.thumb
 444              		.thumb_func
ARM GAS  C:\Users\User\AppData\Local\Temp\ccmyY5Ud.s 			page 13


 446              	Hazards:
 447              	.LFB137:
 263:Core/Src/main.c **** 
 264:Core/Src/main.c **** void Hazards(){
 448              		.loc 1 264 15 is_stmt 1 view -0
 449              		.cfi_startproc
 450              		@ args = 0, pretend = 0, frame = 0
 451              		@ frame_needed = 0, uses_anonymous_args = 0
 452 0000 08B5     		push	{r3, lr}
 453              	.LCFI11:
 454              		.cfi_def_cfa_offset 8
 455              		.cfi_offset 3, -8
 456              		.cfi_offset 14, -4
 457              	.L41:
 265:Core/Src/main.c **** while(1){
 458              		.loc 1 265 1 view .LVU63
 266:Core/Src/main.c ****   HAL_GPIO_TogglePin(RINDIC_GPIO_Port, RINDIC_Pin);
 459              		.loc 1 266 3 view .LVU64
 460 0002 4FF40071 		mov	r1, #512
 461 0006 4FF09040 		mov	r0, #1207959552
 462 000a FFF7FEFF 		bl	HAL_GPIO_TogglePin
 463              	.LVL17:
 267:Core/Src/main.c ****   HAL_GPIO_TogglePin(LINDIC_GPIO_Port, LINDIC_Pin);
 464              		.loc 1 267 3 view .LVU65
 465 000e 4FF48061 		mov	r1, #1024
 466 0012 4FF09040 		mov	r0, #1207959552
 467 0016 FFF7FEFF 		bl	HAL_GPIO_TogglePin
 468              	.LVL18:
 268:Core/Src/main.c ****   HAL_Delay(750);
 469              		.loc 1 268 3 view .LVU66
 470 001a 40F2EE20 		movw	r0, #750
 471 001e FFF7FEFF 		bl	HAL_Delay
 472              	.LVL19:
 269:Core/Src/main.c ****   if(rxData == INSERTHERE){
 473              		.loc 1 269 3 view .LVU67
 474              		.loc 1 269 13 is_stmt 0 view .LVU68
 475 0022 0A4B     		ldr	r3, .L43
 476 0024 1A68     		ldr	r2, [r3]
 477              		.loc 1 269 5 view .LVU69
 478 0026 0A4B     		ldr	r3, .L43+4
 479 0028 9A42     		cmp	r2, r3
 480 002a EAD1     		bne	.L41
 270:Core/Src/main.c ****     HAL_GPIO_WritePin(RINDIC_GPIO_Port, RINDIC_Pin, RESET);
 481              		.loc 1 270 5 is_stmt 1 view .LVU70
 482 002c 0022     		movs	r2, #0
 483 002e 4FF40071 		mov	r1, #512
 484 0032 4FF09040 		mov	r0, #1207959552
 485 0036 FFF7FEFF 		bl	HAL_GPIO_WritePin
 486              	.LVL20:
 271:Core/Src/main.c ****     HAL_GPIO_WritePin(LINDIC_GPIO_Port, LINDIC_Pin, RESET);
 487              		.loc 1 271 5 view .LVU71
 488 003a 0022     		movs	r2, #0
 489 003c 4FF48061 		mov	r1, #1024
 490 0040 4FF09040 		mov	r0, #1207959552
 491 0044 FFF7FEFF 		bl	HAL_GPIO_WritePin
 492              	.LVL21:
 272:Core/Src/main.c ****     return;
ARM GAS  C:\Users\User\AppData\Local\Temp\ccmyY5Ud.s 			page 14


 493              		.loc 1 272 5 view .LVU72
 273:Core/Src/main.c ****   }
 274:Core/Src/main.c **** }
 275:Core/Src/main.c **** }
 494              		.loc 1 275 1 is_stmt 0 view .LVU73
 495 0048 08BD     		pop	{r3, pc}
 496              	.L44:
 497 004a 00BF     		.align	2
 498              	.L43:
 499 004c 00000000 		.word	.LANCHOR0
 500 0050 00000000 		.word	.LANCHOR1
 501              		.cfi_endproc
 502              	.LFE137:
 504              		.section	.text.Error_Handler,"ax",%progbits
 505              		.align	1
 506              		.global	Error_Handler
 507              		.syntax unified
 508              		.thumb
 509              		.thumb_func
 511              	Error_Handler:
 512              	.LFB139:
 276:Core/Src/main.c **** 
 277:Core/Src/main.c **** void heartbeat(void){
 278:Core/Src/main.c ****   if (HAL_CAN_AddTxMessage(&hcan, &txHeader, txData, &canTxMailbox) != HAL_OK){
 279:Core/Src/main.c ****     Error_Handler();
 280:Core/Src/main.c ****   }
 281:Core/Src/main.c ****   HAL_Delay(250);
 282:Core/Src/main.c ****   return;
 283:Core/Src/main.c **** }
 284:Core/Src/main.c **** /* USER CODE END 4 */
 285:Core/Src/main.c **** 
 286:Core/Src/main.c **** /**
 287:Core/Src/main.c ****   * @brief  This function is executed in case of error occurrence.
 288:Core/Src/main.c ****   * @retval None
 289:Core/Src/main.c ****   */
 290:Core/Src/main.c **** void Error_Handler(void)
 291:Core/Src/main.c **** {
 513              		.loc 1 291 1 is_stmt 1 view -0
 514              		.cfi_startproc
 515              		@ Volatile: function does not return.
 516              		@ args = 0, pretend = 0, frame = 0
 517              		@ frame_needed = 0, uses_anonymous_args = 0
 518              		@ link register save eliminated.
 292:Core/Src/main.c ****   /* USER CODE BEGIN Error_Handler_Debug */
 293:Core/Src/main.c ****   /* User can add his own implementation to report the HAL error return state */
 294:Core/Src/main.c ****   __disable_irq();
 519              		.loc 1 294 3 view .LVU75
 520              	.LBB4:
 521              	.LBI4:
 522              		.file 2 "Drivers/CMSIS/Include/cmsis_gcc.h"
   1:Drivers/CMSIS/Include/cmsis_gcc.h **** /**************************************************************************//**
   2:Drivers/CMSIS/Include/cmsis_gcc.h ****  * @file     cmsis_gcc.h
   3:Drivers/CMSIS/Include/cmsis_gcc.h ****  * @brief    CMSIS compiler GCC header file
   4:Drivers/CMSIS/Include/cmsis_gcc.h ****  * @version  V5.0.4
   5:Drivers/CMSIS/Include/cmsis_gcc.h ****  * @date     09. April 2018
   6:Drivers/CMSIS/Include/cmsis_gcc.h ****  ******************************************************************************/
   7:Drivers/CMSIS/Include/cmsis_gcc.h **** /*
ARM GAS  C:\Users\User\AppData\Local\Temp\ccmyY5Ud.s 			page 15


   8:Drivers/CMSIS/Include/cmsis_gcc.h ****  * Copyright (c) 2009-2018 Arm Limited. All rights reserved.
   9:Drivers/CMSIS/Include/cmsis_gcc.h ****  *
  10:Drivers/CMSIS/Include/cmsis_gcc.h ****  * SPDX-License-Identifier: Apache-2.0
  11:Drivers/CMSIS/Include/cmsis_gcc.h ****  *
  12:Drivers/CMSIS/Include/cmsis_gcc.h ****  * Licensed under the Apache License, Version 2.0 (the License); you may
  13:Drivers/CMSIS/Include/cmsis_gcc.h ****  * not use this file except in compliance with the License.
  14:Drivers/CMSIS/Include/cmsis_gcc.h ****  * You may obtain a copy of the License at
  15:Drivers/CMSIS/Include/cmsis_gcc.h ****  *
  16:Drivers/CMSIS/Include/cmsis_gcc.h ****  * www.apache.org/licenses/LICENSE-2.0
  17:Drivers/CMSIS/Include/cmsis_gcc.h ****  *
  18:Drivers/CMSIS/Include/cmsis_gcc.h ****  * Unless required by applicable law or agreed to in writing, software
  19:Drivers/CMSIS/Include/cmsis_gcc.h ****  * distributed under the License is distributed on an AS IS BASIS, WITHOUT
  20:Drivers/CMSIS/Include/cmsis_gcc.h ****  * WARRANTIES OR CONDITIONS OF ANY KIND, either express or implied.
  21:Drivers/CMSIS/Include/cmsis_gcc.h ****  * See the License for the specific language governing permissions and
  22:Drivers/CMSIS/Include/cmsis_gcc.h ****  * limitations under the License.
  23:Drivers/CMSIS/Include/cmsis_gcc.h ****  */
  24:Drivers/CMSIS/Include/cmsis_gcc.h **** 
  25:Drivers/CMSIS/Include/cmsis_gcc.h **** #ifndef __CMSIS_GCC_H
  26:Drivers/CMSIS/Include/cmsis_gcc.h **** #define __CMSIS_GCC_H
  27:Drivers/CMSIS/Include/cmsis_gcc.h **** 
  28:Drivers/CMSIS/Include/cmsis_gcc.h **** /* ignore some GCC warnings */
  29:Drivers/CMSIS/Include/cmsis_gcc.h **** #pragma GCC diagnostic push
  30:Drivers/CMSIS/Include/cmsis_gcc.h **** #pragma GCC diagnostic ignored "-Wsign-conversion"
  31:Drivers/CMSIS/Include/cmsis_gcc.h **** #pragma GCC diagnostic ignored "-Wconversion"
  32:Drivers/CMSIS/Include/cmsis_gcc.h **** #pragma GCC diagnostic ignored "-Wunused-parameter"
  33:Drivers/CMSIS/Include/cmsis_gcc.h **** 
  34:Drivers/CMSIS/Include/cmsis_gcc.h **** /* Fallback for __has_builtin */
  35:Drivers/CMSIS/Include/cmsis_gcc.h **** #ifndef __has_builtin
  36:Drivers/CMSIS/Include/cmsis_gcc.h ****   #define __has_builtin(x) (0)
  37:Drivers/CMSIS/Include/cmsis_gcc.h **** #endif
  38:Drivers/CMSIS/Include/cmsis_gcc.h **** 
  39:Drivers/CMSIS/Include/cmsis_gcc.h **** /* CMSIS compiler specific defines */
  40:Drivers/CMSIS/Include/cmsis_gcc.h **** #ifndef   __ASM
  41:Drivers/CMSIS/Include/cmsis_gcc.h ****   #define __ASM                                  __asm
  42:Drivers/CMSIS/Include/cmsis_gcc.h **** #endif
  43:Drivers/CMSIS/Include/cmsis_gcc.h **** #ifndef   __INLINE
  44:Drivers/CMSIS/Include/cmsis_gcc.h ****   #define __INLINE                               inline
  45:Drivers/CMSIS/Include/cmsis_gcc.h **** #endif
  46:Drivers/CMSIS/Include/cmsis_gcc.h **** #ifndef   __STATIC_INLINE
  47:Drivers/CMSIS/Include/cmsis_gcc.h ****   #define __STATIC_INLINE                        static inline
  48:Drivers/CMSIS/Include/cmsis_gcc.h **** #endif
  49:Drivers/CMSIS/Include/cmsis_gcc.h **** #ifndef   __STATIC_FORCEINLINE                 
  50:Drivers/CMSIS/Include/cmsis_gcc.h ****   #define __STATIC_FORCEINLINE                   __attribute__((always_inline)) static inline
  51:Drivers/CMSIS/Include/cmsis_gcc.h **** #endif                                           
  52:Drivers/CMSIS/Include/cmsis_gcc.h **** #ifndef   __NO_RETURN
  53:Drivers/CMSIS/Include/cmsis_gcc.h ****   #define __NO_RETURN                            __attribute__((__noreturn__))
  54:Drivers/CMSIS/Include/cmsis_gcc.h **** #endif
  55:Drivers/CMSIS/Include/cmsis_gcc.h **** #ifndef   __USED
  56:Drivers/CMSIS/Include/cmsis_gcc.h ****   #define __USED                                 __attribute__((used))
  57:Drivers/CMSIS/Include/cmsis_gcc.h **** #endif
  58:Drivers/CMSIS/Include/cmsis_gcc.h **** #ifndef   __WEAK
  59:Drivers/CMSIS/Include/cmsis_gcc.h ****   #define __WEAK                                 __attribute__((weak))
  60:Drivers/CMSIS/Include/cmsis_gcc.h **** #endif
  61:Drivers/CMSIS/Include/cmsis_gcc.h **** #ifndef   __PACKED
  62:Drivers/CMSIS/Include/cmsis_gcc.h ****   #define __PACKED                               __attribute__((packed, aligned(1)))
  63:Drivers/CMSIS/Include/cmsis_gcc.h **** #endif
  64:Drivers/CMSIS/Include/cmsis_gcc.h **** #ifndef   __PACKED_STRUCT
ARM GAS  C:\Users\User\AppData\Local\Temp\ccmyY5Ud.s 			page 16


  65:Drivers/CMSIS/Include/cmsis_gcc.h ****   #define __PACKED_STRUCT                        struct __attribute__((packed, aligned(1)))
  66:Drivers/CMSIS/Include/cmsis_gcc.h **** #endif
  67:Drivers/CMSIS/Include/cmsis_gcc.h **** #ifndef   __PACKED_UNION
  68:Drivers/CMSIS/Include/cmsis_gcc.h ****   #define __PACKED_UNION                         union __attribute__((packed, aligned(1)))
  69:Drivers/CMSIS/Include/cmsis_gcc.h **** #endif
  70:Drivers/CMSIS/Include/cmsis_gcc.h **** #ifndef   __UNALIGNED_UINT32        /* deprecated */
  71:Drivers/CMSIS/Include/cmsis_gcc.h ****   #pragma GCC diagnostic push
  72:Drivers/CMSIS/Include/cmsis_gcc.h ****   #pragma GCC diagnostic ignored "-Wpacked"
  73:Drivers/CMSIS/Include/cmsis_gcc.h ****   #pragma GCC diagnostic ignored "-Wattributes"
  74:Drivers/CMSIS/Include/cmsis_gcc.h ****   struct __attribute__((packed)) T_UINT32 { uint32_t v; };
  75:Drivers/CMSIS/Include/cmsis_gcc.h ****   #pragma GCC diagnostic pop
  76:Drivers/CMSIS/Include/cmsis_gcc.h ****   #define __UNALIGNED_UINT32(x)                  (((struct T_UINT32 *)(x))->v)
  77:Drivers/CMSIS/Include/cmsis_gcc.h **** #endif
  78:Drivers/CMSIS/Include/cmsis_gcc.h **** #ifndef   __UNALIGNED_UINT16_WRITE
  79:Drivers/CMSIS/Include/cmsis_gcc.h ****   #pragma GCC diagnostic push
  80:Drivers/CMSIS/Include/cmsis_gcc.h ****   #pragma GCC diagnostic ignored "-Wpacked"
  81:Drivers/CMSIS/Include/cmsis_gcc.h ****   #pragma GCC diagnostic ignored "-Wattributes"
  82:Drivers/CMSIS/Include/cmsis_gcc.h ****   __PACKED_STRUCT T_UINT16_WRITE { uint16_t v; };
  83:Drivers/CMSIS/Include/cmsis_gcc.h ****   #pragma GCC diagnostic pop
  84:Drivers/CMSIS/Include/cmsis_gcc.h ****   #define __UNALIGNED_UINT16_WRITE(addr, val)    (void)((((struct T_UINT16_WRITE *)(void *)(addr))-
  85:Drivers/CMSIS/Include/cmsis_gcc.h **** #endif
  86:Drivers/CMSIS/Include/cmsis_gcc.h **** #ifndef   __UNALIGNED_UINT16_READ
  87:Drivers/CMSIS/Include/cmsis_gcc.h ****   #pragma GCC diagnostic push
  88:Drivers/CMSIS/Include/cmsis_gcc.h ****   #pragma GCC diagnostic ignored "-Wpacked"
  89:Drivers/CMSIS/Include/cmsis_gcc.h ****   #pragma GCC diagnostic ignored "-Wattributes"
  90:Drivers/CMSIS/Include/cmsis_gcc.h ****   __PACKED_STRUCT T_UINT16_READ { uint16_t v; };
  91:Drivers/CMSIS/Include/cmsis_gcc.h ****   #pragma GCC diagnostic pop
  92:Drivers/CMSIS/Include/cmsis_gcc.h ****   #define __UNALIGNED_UINT16_READ(addr)          (((const struct T_UINT16_READ *)(const void *)(add
  93:Drivers/CMSIS/Include/cmsis_gcc.h **** #endif
  94:Drivers/CMSIS/Include/cmsis_gcc.h **** #ifndef   __UNALIGNED_UINT32_WRITE
  95:Drivers/CMSIS/Include/cmsis_gcc.h ****   #pragma GCC diagnostic push
  96:Drivers/CMSIS/Include/cmsis_gcc.h ****   #pragma GCC diagnostic ignored "-Wpacked"
  97:Drivers/CMSIS/Include/cmsis_gcc.h ****   #pragma GCC diagnostic ignored "-Wattributes"
  98:Drivers/CMSIS/Include/cmsis_gcc.h ****   __PACKED_STRUCT T_UINT32_WRITE { uint32_t v; };
  99:Drivers/CMSIS/Include/cmsis_gcc.h ****   #pragma GCC diagnostic pop
 100:Drivers/CMSIS/Include/cmsis_gcc.h ****   #define __UNALIGNED_UINT32_WRITE(addr, val)    (void)((((struct T_UINT32_WRITE *)(void *)(addr))-
 101:Drivers/CMSIS/Include/cmsis_gcc.h **** #endif
 102:Drivers/CMSIS/Include/cmsis_gcc.h **** #ifndef   __UNALIGNED_UINT32_READ
 103:Drivers/CMSIS/Include/cmsis_gcc.h ****   #pragma GCC diagnostic push
 104:Drivers/CMSIS/Include/cmsis_gcc.h ****   #pragma GCC diagnostic ignored "-Wpacked"
 105:Drivers/CMSIS/Include/cmsis_gcc.h ****   #pragma GCC diagnostic ignored "-Wattributes"
 106:Drivers/CMSIS/Include/cmsis_gcc.h ****   __PACKED_STRUCT T_UINT32_READ { uint32_t v; };
 107:Drivers/CMSIS/Include/cmsis_gcc.h ****   #pragma GCC diagnostic pop
 108:Drivers/CMSIS/Include/cmsis_gcc.h ****   #define __UNALIGNED_UINT32_READ(addr)          (((const struct T_UINT32_READ *)(const void *)(add
 109:Drivers/CMSIS/Include/cmsis_gcc.h **** #endif
 110:Drivers/CMSIS/Include/cmsis_gcc.h **** #ifndef   __ALIGNED
 111:Drivers/CMSIS/Include/cmsis_gcc.h ****   #define __ALIGNED(x)                           __attribute__((aligned(x)))
 112:Drivers/CMSIS/Include/cmsis_gcc.h **** #endif
 113:Drivers/CMSIS/Include/cmsis_gcc.h **** #ifndef   __RESTRICT
 114:Drivers/CMSIS/Include/cmsis_gcc.h ****   #define __RESTRICT                             __restrict
 115:Drivers/CMSIS/Include/cmsis_gcc.h **** #endif
 116:Drivers/CMSIS/Include/cmsis_gcc.h **** 
 117:Drivers/CMSIS/Include/cmsis_gcc.h **** 
 118:Drivers/CMSIS/Include/cmsis_gcc.h **** /* ###########################  Core Function Access  ########################### */
 119:Drivers/CMSIS/Include/cmsis_gcc.h **** /** \ingroup  CMSIS_Core_FunctionInterface
 120:Drivers/CMSIS/Include/cmsis_gcc.h ****     \defgroup CMSIS_Core_RegAccFunctions CMSIS Core Register Access Functions
 121:Drivers/CMSIS/Include/cmsis_gcc.h ****   @{
ARM GAS  C:\Users\User\AppData\Local\Temp\ccmyY5Ud.s 			page 17


 122:Drivers/CMSIS/Include/cmsis_gcc.h ****  */
 123:Drivers/CMSIS/Include/cmsis_gcc.h **** 
 124:Drivers/CMSIS/Include/cmsis_gcc.h **** /**
 125:Drivers/CMSIS/Include/cmsis_gcc.h ****   \brief   Enable IRQ Interrupts
 126:Drivers/CMSIS/Include/cmsis_gcc.h ****   \details Enables IRQ interrupts by clearing the I-bit in the CPSR.
 127:Drivers/CMSIS/Include/cmsis_gcc.h ****            Can only be executed in Privileged modes.
 128:Drivers/CMSIS/Include/cmsis_gcc.h ****  */
 129:Drivers/CMSIS/Include/cmsis_gcc.h **** __STATIC_FORCEINLINE void __enable_irq(void)
 130:Drivers/CMSIS/Include/cmsis_gcc.h **** {
 131:Drivers/CMSIS/Include/cmsis_gcc.h ****   __ASM volatile ("cpsie i" : : : "memory");
 132:Drivers/CMSIS/Include/cmsis_gcc.h **** }
 133:Drivers/CMSIS/Include/cmsis_gcc.h **** 
 134:Drivers/CMSIS/Include/cmsis_gcc.h **** 
 135:Drivers/CMSIS/Include/cmsis_gcc.h **** /**
 136:Drivers/CMSIS/Include/cmsis_gcc.h ****   \brief   Disable IRQ Interrupts
 137:Drivers/CMSIS/Include/cmsis_gcc.h ****   \details Disables IRQ interrupts by setting the I-bit in the CPSR.
 138:Drivers/CMSIS/Include/cmsis_gcc.h ****            Can only be executed in Privileged modes.
 139:Drivers/CMSIS/Include/cmsis_gcc.h ****  */
 140:Drivers/CMSIS/Include/cmsis_gcc.h **** __STATIC_FORCEINLINE void __disable_irq(void)
 523              		.loc 2 140 27 view .LVU76
 524              	.LBB5:
 141:Drivers/CMSIS/Include/cmsis_gcc.h **** {
 142:Drivers/CMSIS/Include/cmsis_gcc.h ****   __ASM volatile ("cpsid i" : : : "memory");
 525              		.loc 2 142 3 view .LVU77
 526              		.syntax unified
 527              	@ 142 "Drivers/CMSIS/Include/cmsis_gcc.h" 1
 528 0000 72B6     		cpsid i
 529              	@ 0 "" 2
 530              		.thumb
 531              		.syntax unified
 532              	.L46:
 533              	.LBE5:
 534              	.LBE4:
 295:Core/Src/main.c ****   while (1)
 535              		.loc 1 295 3 discriminator 1 view .LVU78
 296:Core/Src/main.c ****   {
 297:Core/Src/main.c ****   }
 536              		.loc 1 297 3 discriminator 1 view .LVU79
 295:Core/Src/main.c ****   while (1)
 537              		.loc 1 295 9 discriminator 1 view .LVU80
 538 0002 FEE7     		b	.L46
 539              		.cfi_endproc
 540              	.LFE139:
 542              		.section	.text.SystemClock_Config,"ax",%progbits
 543              		.align	1
 544              		.global	SystemClock_Config
 545              		.syntax unified
 546              		.thumb
 547              		.thumb_func
 549              	SystemClock_Config:
 550              	.LFB124:
 148:Core/Src/main.c ****   RCC_OscInitTypeDef RCC_OscInitStruct = {0};
 551              		.loc 1 148 1 view -0
 552              		.cfi_startproc
 553              		@ args = 0, pretend = 0, frame = 64
 554              		@ frame_needed = 0, uses_anonymous_args = 0
 555 0000 00B5     		push	{lr}
ARM GAS  C:\Users\User\AppData\Local\Temp\ccmyY5Ud.s 			page 18


 556              	.LCFI12:
 557              		.cfi_def_cfa_offset 4
 558              		.cfi_offset 14, -4
 559 0002 91B0     		sub	sp, sp, #68
 560              	.LCFI13:
 561              		.cfi_def_cfa_offset 72
 149:Core/Src/main.c ****   RCC_ClkInitTypeDef RCC_ClkInitStruct = {0};
 562              		.loc 1 149 3 view .LVU82
 149:Core/Src/main.c ****   RCC_ClkInitTypeDef RCC_ClkInitStruct = {0};
 563              		.loc 1 149 22 is_stmt 0 view .LVU83
 564 0004 2822     		movs	r2, #40
 565 0006 0021     		movs	r1, #0
 566 0008 06A8     		add	r0, sp, #24
 567 000a FFF7FEFF 		bl	memset
 568              	.LVL22:
 150:Core/Src/main.c **** 
 569              		.loc 1 150 3 is_stmt 1 view .LVU84
 150:Core/Src/main.c **** 
 570              		.loc 1 150 22 is_stmt 0 view .LVU85
 571 000e 0023     		movs	r3, #0
 572 0010 0193     		str	r3, [sp, #4]
 573 0012 0293     		str	r3, [sp, #8]
 574 0014 0393     		str	r3, [sp, #12]
 575 0016 0493     		str	r3, [sp, #16]
 576 0018 0593     		str	r3, [sp, #20]
 155:Core/Src/main.c ****   RCC_OscInitStruct.HSEState = RCC_HSE_ON;
 577              		.loc 1 155 3 is_stmt 1 view .LVU86
 155:Core/Src/main.c ****   RCC_OscInitStruct.HSEState = RCC_HSE_ON;
 578              		.loc 1 155 36 is_stmt 0 view .LVU87
 579 001a 0122     		movs	r2, #1
 580 001c 0692     		str	r2, [sp, #24]
 156:Core/Src/main.c ****   RCC_OscInitStruct.HSEPredivValue = RCC_HSE_PREDIV_DIV1;
 581              		.loc 1 156 3 is_stmt 1 view .LVU88
 156:Core/Src/main.c ****   RCC_OscInitStruct.HSEPredivValue = RCC_HSE_PREDIV_DIV1;
 582              		.loc 1 156 30 is_stmt 0 view .LVU89
 583 001e 4FF48033 		mov	r3, #65536
 584 0022 0793     		str	r3, [sp, #28]
 157:Core/Src/main.c ****   RCC_OscInitStruct.HSIState = RCC_HSI_ON;
 585              		.loc 1 157 3 is_stmt 1 view .LVU90
 158:Core/Src/main.c ****   RCC_OscInitStruct.PLL.PLLState = RCC_PLL_ON;
 586              		.loc 1 158 3 view .LVU91
 158:Core/Src/main.c ****   RCC_OscInitStruct.PLL.PLLState = RCC_PLL_ON;
 587              		.loc 1 158 30 is_stmt 0 view .LVU92
 588 0024 0A92     		str	r2, [sp, #40]
 159:Core/Src/main.c ****   RCC_OscInitStruct.PLL.PLLSource = RCC_PLLSOURCE_HSE;
 589              		.loc 1 159 3 is_stmt 1 view .LVU93
 159:Core/Src/main.c ****   RCC_OscInitStruct.PLL.PLLSource = RCC_PLLSOURCE_HSE;
 590              		.loc 1 159 34 is_stmt 0 view .LVU94
 591 0026 0222     		movs	r2, #2
 592 0028 0D92     		str	r2, [sp, #52]
 160:Core/Src/main.c ****   RCC_OscInitStruct.PLL.PLLMUL = RCC_PLL_MUL2;
 593              		.loc 1 160 3 is_stmt 1 view .LVU95
 160:Core/Src/main.c ****   RCC_OscInitStruct.PLL.PLLMUL = RCC_PLL_MUL2;
 594              		.loc 1 160 35 is_stmt 0 view .LVU96
 595 002a 0E93     		str	r3, [sp, #56]
 161:Core/Src/main.c ****   if (HAL_RCC_OscConfig(&RCC_OscInitStruct) != HAL_OK)
 596              		.loc 1 161 3 is_stmt 1 view .LVU97
ARM GAS  C:\Users\User\AppData\Local\Temp\ccmyY5Ud.s 			page 19


 162:Core/Src/main.c ****   {
 597              		.loc 1 162 3 view .LVU98
 162:Core/Src/main.c ****   {
 598              		.loc 1 162 7 is_stmt 0 view .LVU99
 599 002c 06A8     		add	r0, sp, #24
 600 002e FFF7FEFF 		bl	HAL_RCC_OscConfig
 601              	.LVL23:
 162:Core/Src/main.c ****   {
 602              		.loc 1 162 6 view .LVU100
 603 0032 70B9     		cbnz	r0, .L51
 169:Core/Src/main.c ****                               |RCC_CLOCKTYPE_PCLK1|RCC_CLOCKTYPE_PCLK2;
 604              		.loc 1 169 3 is_stmt 1 view .LVU101
 169:Core/Src/main.c ****                               |RCC_CLOCKTYPE_PCLK1|RCC_CLOCKTYPE_PCLK2;
 605              		.loc 1 169 31 is_stmt 0 view .LVU102
 606 0034 0F23     		movs	r3, #15
 607 0036 0193     		str	r3, [sp, #4]
 171:Core/Src/main.c ****   RCC_ClkInitStruct.AHBCLKDivider = RCC_SYSCLK_DIV1;
 608              		.loc 1 171 3 is_stmt 1 view .LVU103
 171:Core/Src/main.c ****   RCC_ClkInitStruct.AHBCLKDivider = RCC_SYSCLK_DIV1;
 609              		.loc 1 171 34 is_stmt 0 view .LVU104
 610 0038 0223     		movs	r3, #2
 611 003a 0293     		str	r3, [sp, #8]
 172:Core/Src/main.c ****   RCC_ClkInitStruct.APB1CLKDivider = RCC_HCLK_DIV1;
 612              		.loc 1 172 3 is_stmt 1 view .LVU105
 172:Core/Src/main.c ****   RCC_ClkInitStruct.APB1CLKDivider = RCC_HCLK_DIV1;
 613              		.loc 1 172 35 is_stmt 0 view .LVU106
 614 003c 0021     		movs	r1, #0
 615 003e 0391     		str	r1, [sp, #12]
 173:Core/Src/main.c ****   RCC_ClkInitStruct.APB2CLKDivider = RCC_HCLK_DIV1;
 616              		.loc 1 173 3 is_stmt 1 view .LVU107
 173:Core/Src/main.c ****   RCC_ClkInitStruct.APB2CLKDivider = RCC_HCLK_DIV1;
 617              		.loc 1 173 36 is_stmt 0 view .LVU108
 618 0040 0491     		str	r1, [sp, #16]
 174:Core/Src/main.c **** 
 619              		.loc 1 174 3 is_stmt 1 view .LVU109
 174:Core/Src/main.c **** 
 620              		.loc 1 174 36 is_stmt 0 view .LVU110
 621 0042 0591     		str	r1, [sp, #20]
 176:Core/Src/main.c ****   {
 622              		.loc 1 176 3 is_stmt 1 view .LVU111
 176:Core/Src/main.c ****   {
 623              		.loc 1 176 7 is_stmt 0 view .LVU112
 624 0044 01A8     		add	r0, sp, #4
 625 0046 FFF7FEFF 		bl	HAL_RCC_ClockConfig
 626              	.LVL24:
 176:Core/Src/main.c ****   {
 627              		.loc 1 176 6 view .LVU113
 628 004a 20B9     		cbnz	r0, .L52
 180:Core/Src/main.c **** 
 629              		.loc 1 180 1 view .LVU114
 630 004c 11B0     		add	sp, sp, #68
 631              	.LCFI14:
 632              		.cfi_remember_state
 633              		.cfi_def_cfa_offset 4
 634              		@ sp needed
 635 004e 5DF804FB 		ldr	pc, [sp], #4
 636              	.L51:
ARM GAS  C:\Users\User\AppData\Local\Temp\ccmyY5Ud.s 			page 20


 637              	.LCFI15:
 638              		.cfi_restore_state
 164:Core/Src/main.c ****   }
 639              		.loc 1 164 5 is_stmt 1 view .LVU115
 640 0052 FFF7FEFF 		bl	Error_Handler
 641              	.LVL25:
 642              	.L52:
 178:Core/Src/main.c ****   }
 643              		.loc 1 178 5 view .LVU116
 644 0056 FFF7FEFF 		bl	Error_Handler
 645              	.LVL26:
 646              		.cfi_endproc
 647              	.LFE124:
 649              		.section	.text.HAL_CAN_RxFifo0MsgPendingCallback,"ax",%progbits
 650              		.align	1
 651              		.global	HAL_CAN_RxFifo0MsgPendingCallback
 652              		.syntax unified
 653              		.thumb
 654              		.thumb_func
 656              	HAL_CAN_RxFifo0MsgPendingCallback:
 657              	.LVL27:
 658              	.LFB125:
 183:Core/Src/main.c ****   if(HAL_CAN_GetRxMessage(&hcan, 0, &rxHeader, rxData) != HAL_OK){
 659              		.loc 1 183 65 view -0
 660              		.cfi_startproc
 661              		@ args = 0, pretend = 0, frame = 0
 662              		@ frame_needed = 0, uses_anonymous_args = 0
 183:Core/Src/main.c ****   if(HAL_CAN_GetRxMessage(&hcan, 0, &rxHeader, rxData) != HAL_OK){
 663              		.loc 1 183 65 is_stmt 0 view .LVU118
 664 0000 08B5     		push	{r3, lr}
 665              	.LCFI16:
 666              		.cfi_def_cfa_offset 8
 667              		.cfi_offset 3, -8
 668              		.cfi_offset 14, -4
 184:Core/Src/main.c ****     Error_Handler();
 669              		.loc 1 184 3 is_stmt 1 view .LVU119
 184:Core/Src/main.c ****     Error_Handler();
 670              		.loc 1 184 6 is_stmt 0 view .LVU120
 671 0002 054B     		ldr	r3, .L57
 672 0004 054A     		ldr	r2, .L57+4
 673 0006 0021     		movs	r1, #0
 674 0008 0548     		ldr	r0, .L57+8
 675              	.LVL28:
 184:Core/Src/main.c ****     Error_Handler();
 676              		.loc 1 184 6 view .LVU121
 677 000a FFF7FEFF 		bl	HAL_CAN_GetRxMessage
 678              	.LVL29:
 184:Core/Src/main.c ****     Error_Handler();
 679              		.loc 1 184 5 view .LVU122
 680 000e 00B9     		cbnz	r0, .L56
 187:Core/Src/main.c **** 
 681              		.loc 1 187 1 view .LVU123
 682 0010 08BD     		pop	{r3, pc}
 683              	.L56:
 185:Core/Src/main.c ****   }
 684              		.loc 1 185 5 is_stmt 1 view .LVU124
 685 0012 FFF7FEFF 		bl	Error_Handler
ARM GAS  C:\Users\User\AppData\Local\Temp\ccmyY5Ud.s 			page 21


 686              	.LVL30:
 687              	.L58:
 688 0016 00BF     		.align	2
 689              	.L57:
 690 0018 00000000 		.word	.LANCHOR1
 691 001c 00000000 		.word	.LANCHOR2
 692 0020 00000000 		.word	hcan
 693              		.cfi_endproc
 694              	.LFE125:
 696              		.section	.text.heartbeat,"ax",%progbits
 697              		.align	1
 698              		.global	heartbeat
 699              		.syntax unified
 700              		.thumb
 701              		.thumb_func
 703              	heartbeat:
 704              	.LFB138:
 277:Core/Src/main.c ****   if (HAL_CAN_AddTxMessage(&hcan, &txHeader, txData, &canTxMailbox) != HAL_OK){
 705              		.loc 1 277 21 view -0
 706              		.cfi_startproc
 707              		@ args = 0, pretend = 0, frame = 0
 708              		@ frame_needed = 0, uses_anonymous_args = 0
 709 0000 08B5     		push	{r3, lr}
 710              	.LCFI17:
 711              		.cfi_def_cfa_offset 8
 712              		.cfi_offset 3, -8
 713              		.cfi_offset 14, -4
 278:Core/Src/main.c ****     Error_Handler();
 714              		.loc 1 278 3 view .LVU126
 278:Core/Src/main.c ****     Error_Handler();
 715              		.loc 1 278 7 is_stmt 0 view .LVU127
 716 0002 064B     		ldr	r3, .L63
 717 0004 064A     		ldr	r2, .L63+4
 718 0006 0749     		ldr	r1, .L63+8
 719 0008 0748     		ldr	r0, .L63+12
 720 000a FFF7FEFF 		bl	HAL_CAN_AddTxMessage
 721              	.LVL31:
 278:Core/Src/main.c ****     Error_Handler();
 722              		.loc 1 278 6 view .LVU128
 723 000e 18B9     		cbnz	r0, .L62
 281:Core/Src/main.c ****   return;
 724              		.loc 1 281 3 is_stmt 1 view .LVU129
 725 0010 FA20     		movs	r0, #250
 726 0012 FFF7FEFF 		bl	HAL_Delay
 727              	.LVL32:
 282:Core/Src/main.c **** }
 728              		.loc 1 282 3 view .LVU130
 283:Core/Src/main.c **** /* USER CODE END 4 */
 729              		.loc 1 283 1 is_stmt 0 view .LVU131
 730 0016 08BD     		pop	{r3, pc}
 731              	.L62:
 279:Core/Src/main.c ****   }
 732              		.loc 1 279 5 is_stmt 1 view .LVU132
 733 0018 FFF7FEFF 		bl	Error_Handler
 734              	.LVL33:
 735              	.L64:
 736              		.align	2
ARM GAS  C:\Users\User\AppData\Local\Temp\ccmyY5Ud.s 			page 22


 737              	.L63:
 738 001c 00000000 		.word	.LANCHOR3
 739 0020 00000000 		.word	.LANCHOR4
 740 0024 00000000 		.word	.LANCHOR5
 741 0028 00000000 		.word	hcan
 742              		.cfi_endproc
 743              	.LFE138:
 745              		.section	.text.main,"ax",%progbits
 746              		.align	1
 747              		.global	main
 748              		.syntax unified
 749              		.thumb
 750              		.thumb_func
 752              	main:
 753              	.LFB123:
  75:Core/Src/main.c ****   /* USER CODE BEGIN 1 */
 754              		.loc 1 75 1 view -0
 755              		.cfi_startproc
 756              		@ Volatile: function does not return.
 757              		@ args = 0, pretend = 0, frame = 0
 758              		@ frame_needed = 0, uses_anonymous_args = 0
 759 0000 08B5     		push	{r3, lr}
 760              	.LCFI18:
 761              		.cfi_def_cfa_offset 8
 762              		.cfi_offset 3, -8
 763              		.cfi_offset 14, -4
  83:Core/Src/main.c **** 
 764              		.loc 1 83 3 view .LVU134
 765 0002 FFF7FEFF 		bl	HAL_Init
 766              	.LVL34:
  89:Core/Src/main.c ****   canfil.FilterMode = CAN_FILTERMODE_IDMASK;
 767              		.loc 1 89 3 view .LVU135
  89:Core/Src/main.c ****   canfil.FilterMode = CAN_FILTERMODE_IDMASK;
 768              		.loc 1 89 21 is_stmt 0 view .LVU136
 769 0006 1749     		ldr	r1, .L68
 770 0008 0023     		movs	r3, #0
 771 000a 4B61     		str	r3, [r1, #20]
  90:Core/Src/main.c ****   canfil.FilterFIFOAssignment = CAN_RX_FIFO0;
 772              		.loc 1 90 3 is_stmt 1 view .LVU137
  90:Core/Src/main.c ****   canfil.FilterFIFOAssignment = CAN_RX_FIFO0;
 773              		.loc 1 90 21 is_stmt 0 view .LVU138
 774 000c 8B61     		str	r3, [r1, #24]
  91:Core/Src/main.c ****   canfil.FilterIdHigh = 0;
 775              		.loc 1 91 3 is_stmt 1 view .LVU139
  91:Core/Src/main.c ****   canfil.FilterIdHigh = 0;
 776              		.loc 1 91 31 is_stmt 0 view .LVU140
 777 000e 0B61     		str	r3, [r1, #16]
  92:Core/Src/main.c ****   canfil.FilterIdLow = 0;
 778              		.loc 1 92 3 is_stmt 1 view .LVU141
  92:Core/Src/main.c ****   canfil.FilterIdLow = 0;
 779              		.loc 1 92 23 is_stmt 0 view .LVU142
 780 0010 0B60     		str	r3, [r1]
  93:Core/Src/main.c ****   canfil.FilterMaskIdHigh = 0;
 781              		.loc 1 93 3 is_stmt 1 view .LVU143
  93:Core/Src/main.c ****   canfil.FilterMaskIdHigh = 0;
 782              		.loc 1 93 22 is_stmt 0 view .LVU144
 783 0012 4B60     		str	r3, [r1, #4]
ARM GAS  C:\Users\User\AppData\Local\Temp\ccmyY5Ud.s 			page 23


  94:Core/Src/main.c ****   canfil.FilterMaskIdLow = 0;
 784              		.loc 1 94 3 is_stmt 1 view .LVU145
  94:Core/Src/main.c ****   canfil.FilterMaskIdLow = 0;
 785              		.loc 1 94 27 is_stmt 0 view .LVU146
 786 0014 8B60     		str	r3, [r1, #8]
  95:Core/Src/main.c ****   canfil.FilterScale = CAN_FILTERSCALE_32BIT;
 787              		.loc 1 95 3 is_stmt 1 view .LVU147
  95:Core/Src/main.c ****   canfil.FilterScale = CAN_FILTERSCALE_32BIT;
 788              		.loc 1 95 26 is_stmt 0 view .LVU148
 789 0016 CB60     		str	r3, [r1, #12]
  96:Core/Src/main.c ****   canfil.FilterActivation = ENABLE;
 790              		.loc 1 96 3 is_stmt 1 view .LVU149
  96:Core/Src/main.c ****   canfil.FilterActivation = ENABLE;
 791              		.loc 1 96 22 is_stmt 0 view .LVU150
 792 0018 0122     		movs	r2, #1
 793 001a CA61     		str	r2, [r1, #28]
  97:Core/Src/main.c ****   canfil.SlaveStartFilterBank = 14;
 794              		.loc 1 97 3 is_stmt 1 view .LVU151
  97:Core/Src/main.c ****   canfil.SlaveStartFilterBank = 14;
 795              		.loc 1 97 27 is_stmt 0 view .LVU152
 796 001c 0A62     		str	r2, [r1, #32]
  98:Core/Src/main.c **** 
 797              		.loc 1 98 3 is_stmt 1 view .LVU153
  98:Core/Src/main.c **** 
 798              		.loc 1 98 31 is_stmt 0 view .LVU154
 799 001e 0E22     		movs	r2, #14
 800 0020 4A62     		str	r2, [r1, #36]
 102:Core/Src/main.c ****   txHeader.IDE = CAN_ID_STD;
 801              		.loc 1 102 3 is_stmt 1 view .LVU155
 102:Core/Src/main.c ****   txHeader.IDE = CAN_ID_STD;
 802              		.loc 1 102 16 is_stmt 0 view .LVU156
 803 0022 114A     		ldr	r2, .L68+4
 804 0024 0820     		movs	r0, #8
 805 0026 1061     		str	r0, [r2, #16]
 103:Core/Src/main.c ****   txHeader.RTR = CAN_RTR_DATA;
 806              		.loc 1 103 3 is_stmt 1 view .LVU157
 103:Core/Src/main.c ****   txHeader.RTR = CAN_RTR_DATA;
 807              		.loc 1 103 16 is_stmt 0 view .LVU158
 808 0028 9360     		str	r3, [r2, #8]
 104:Core/Src/main.c ****   txHeader.StdId = 0x030;
 809              		.loc 1 104 3 is_stmt 1 view .LVU159
 104:Core/Src/main.c ****   txHeader.StdId = 0x030;
 810              		.loc 1 104 16 is_stmt 0 view .LVU160
 811 002a D360     		str	r3, [r2, #12]
 105:Core/Src/main.c ****   txHeader.ExtId = 0x02;
 812              		.loc 1 105 3 is_stmt 1 view .LVU161
 105:Core/Src/main.c ****   txHeader.ExtId = 0x02;
 813              		.loc 1 105 18 is_stmt 0 view .LVU162
 814 002c 3020     		movs	r0, #48
 815 002e 1060     		str	r0, [r2]
 106:Core/Src/main.c ****   txHeader.TransmitGlobalTime = DISABLE;
 816              		.loc 1 106 3 is_stmt 1 view .LVU163
 106:Core/Src/main.c ****   txHeader.TransmitGlobalTime = DISABLE;
 817              		.loc 1 106 18 is_stmt 0 view .LVU164
 818 0030 0225     		movs	r5, #2
 819 0032 5560     		str	r5, [r2, #4]
 107:Core/Src/main.c **** 
ARM GAS  C:\Users\User\AppData\Local\Temp\ccmyY5Ud.s 			page 24


 820              		.loc 1 107 3 is_stmt 1 view .LVU165
 107:Core/Src/main.c **** 
 821              		.loc 1 107 31 is_stmt 0 view .LVU166
 822 0034 1375     		strb	r3, [r2, #20]
 111:Core/Src/main.c ****   HAL_CAN_Start(&hcan);
 823              		.loc 1 111 3 is_stmt 1 view .LVU167
 824 0036 0D4C     		ldr	r4, .L68+8
 825 0038 2046     		mov	r0, r4
 826 003a FFF7FEFF 		bl	HAL_CAN_ConfigFilter
 827              	.LVL35:
 112:Core/Src/main.c ****   HAL_CAN_ActivateNotification(&hcan, CAN_IT_RX_FIFO0_MSG_PENDING);
 828              		.loc 1 112 3 view .LVU168
 829 003e 2046     		mov	r0, r4
 830 0040 FFF7FEFF 		bl	HAL_CAN_Start
 831              	.LVL36:
 113:Core/Src/main.c **** 
 832              		.loc 1 113 3 view .LVU169
 833 0044 2946     		mov	r1, r5
 834 0046 2046     		mov	r0, r4
 835 0048 FFF7FEFF 		bl	HAL_CAN_ActivateNotification
 836              	.LVL37:
 118:Core/Src/main.c **** 
 837              		.loc 1 118 3 view .LVU170
 838 004c FFF7FEFF 		bl	SystemClock_Config
 839              	.LVL38:
 125:Core/Src/main.c ****   MX_CAN_Init();
 840              		.loc 1 125 3 view .LVU171
 841 0050 FFF7FEFF 		bl	MX_GPIO_Init
 842              	.LVL39:
 126:Core/Src/main.c ****   MX_USART2_UART_Init();
 843              		.loc 1 126 3 view .LVU172
 844 0054 FFF7FEFF 		bl	MX_CAN_Init
 845              	.LVL40:
 127:Core/Src/main.c ****   /* USER CODE BEGIN 2 */
 846              		.loc 1 127 3 view .LVU173
 847 0058 FFF7FEFF 		bl	MX_USART2_UART_Init
 848              	.LVL41:
 849              	.L66:
 134:Core/Src/main.c ****   {
 850              		.loc 1 134 3 discriminator 1 view .LVU174
 851              	.LBB6:
 137:Core/Src/main.c ****     /* USER CODE BEGIN 3 */
 852              		.loc 1 137 5 discriminator 1 view .LVU175
 853 005c FFF7FEFF 		bl	heartbeat
 854              	.LVL42:
 855              	.LBE6:
 134:Core/Src/main.c ****   {
 856              		.loc 1 134 9 discriminator 1 view .LVU176
 857 0060 FCE7     		b	.L66
 858              	.L69:
 859 0062 00BF     		.align	2
 860              	.L68:
 861 0064 00000000 		.word	.LANCHOR6
 862 0068 00000000 		.word	.LANCHOR5
 863 006c 00000000 		.word	hcan
 864              		.cfi_endproc
 865              	.LFE123:
ARM GAS  C:\Users\User\AppData\Local\Temp\ccmyY5Ud.s 			page 25


 867              		.global	INSERTHERE
 868              		.global	RXID
 869              		.global	canTxMailbox
 870              		.global	canRxMailbox
 871              		.global	canfil
 872              		.global	txData
 873              		.global	rxData
 874              		.global	txHeader
 875              		.global	rxHeader
 876              		.section	.bss.INSERTHERE,"aw",%nobits
 877              		.align	2
 878              		.set	.LANCHOR0,. + 0
 881              	INSERTHERE:
 882 0000 00000000 		.space	4
 883              		.section	.bss.RXID,"aw",%nobits
 884              		.align	2
 887              	RXID:
 888 0000 00000000 		.space	4
 889              		.section	.bss.canRxMailbox,"aw",%nobits
 890              		.align	2
 893              	canRxMailbox:
 894 0000 00000000 		.space	4
 895              		.section	.bss.canTxMailbox,"aw",%nobits
 896              		.align	2
 897              		.set	.LANCHOR3,. + 0
 900              	canTxMailbox:
 901 0000 00000000 		.space	4
 902              		.section	.bss.canfil,"aw",%nobits
 903              		.align	2
 904              		.set	.LANCHOR6,. + 0
 907              	canfil:
 908 0000 00000000 		.space	40
 908      00000000 
 908      00000000 
 908      00000000 
 908      00000000 
 909              		.section	.bss.rxData,"aw",%nobits
 910              		.align	2
 911              		.set	.LANCHOR1,. + 0
 914              	rxData:
 915 0000 00000000 		.space	8
 915      00000000 
 916              		.section	.bss.rxHeader,"aw",%nobits
 917              		.align	2
 918              		.set	.LANCHOR2,. + 0
 921              	rxHeader:
 922 0000 00000000 		.space	28
 922      00000000 
 922      00000000 
 922      00000000 
 922      00000000 
 923              		.section	.bss.txData,"aw",%nobits
 924              		.align	2
 925              		.set	.LANCHOR4,. + 0
 928              	txData:
 929 0000 00000000 		.space	8
 929      00000000 
ARM GAS  C:\Users\User\AppData\Local\Temp\ccmyY5Ud.s 			page 26


 930              		.section	.bss.txHeader,"aw",%nobits
 931              		.align	2
 932              		.set	.LANCHOR5,. + 0
 935              	txHeader:
 936 0000 00000000 		.space	24
 936      00000000 
 936      00000000 
 936      00000000 
 936      00000000 
 937              		.text
 938              	.Letext0:
 939              		.file 3 "c:\\program files (x86)\\gnu arm embedded toolchain\\10 2021.10\\arm-none-eabi\\include\\
 940              		.file 4 "c:\\program files (x86)\\gnu arm embedded toolchain\\10 2021.10\\arm-none-eabi\\include\\
 941              		.file 5 "Drivers/CMSIS/Device/ST/STM32F3xx/Include/stm32f303x8.h"
 942              		.file 6 "Drivers/CMSIS/Device/ST/STM32F3xx/Include/stm32f3xx.h"
 943              		.file 7 "Drivers/STM32F3xx_HAL_Driver/Inc/stm32f3xx_hal_def.h"
 944              		.file 8 "Drivers/STM32F3xx_HAL_Driver/Inc/stm32f3xx_hal_rcc.h"
 945              		.file 9 "Drivers/STM32F3xx_HAL_Driver/Inc/stm32f3xx_hal_can.h"
 946              		.file 10 "Core/Inc/can.h"
 947              		.file 11 "Drivers/STM32F3xx_HAL_Driver/Inc/stm32f3xx_hal.h"
 948              		.file 12 "Drivers/STM32F3xx_HAL_Driver/Inc/stm32f3xx_hal_gpio.h"
 949              		.file 13 "Core/Inc/gpio.h"
 950              		.file 14 "Core/Inc/usart.h"
 951              		.file 15 "<built-in>"
ARM GAS  C:\Users\User\AppData\Local\Temp\ccmyY5Ud.s 			page 27


DEFINED SYMBOLS
                            *ABS*:00000000 main.c
C:\Users\User\AppData\Local\Temp\ccmyY5Ud.s:20     .text.RBlinker:00000000 $t
C:\Users\User\AppData\Local\Temp\ccmyY5Ud.s:26     .text.RBlinker:00000000 RBlinker
C:\Users\User\AppData\Local\Temp\ccmyY5Ud.s:69     .text.RBlinker:00000030 $d
C:\Users\User\AppData\Local\Temp\ccmyY5Ud.s:75     .text.LBlinker:00000000 $t
C:\Users\User\AppData\Local\Temp\ccmyY5Ud.s:81     .text.LBlinker:00000000 LBlinker
C:\Users\User\AppData\Local\Temp\ccmyY5Ud.s:123    .text.LBlinker:00000030 $d
C:\Users\User\AppData\Local\Temp\ccmyY5Ud.s:129    .text.Brake:00000000 $t
C:\Users\User\AppData\Local\Temp\ccmyY5Ud.s:135    .text.Brake:00000000 Brake
C:\Users\User\AppData\Local\Temp\ccmyY5Ud.s:158    .text.Brake:00000010 $d
C:\Users\User\AppData\Local\Temp\ccmyY5Ud.s:163    .text.BrakeR:00000000 $t
C:\Users\User\AppData\Local\Temp\ccmyY5Ud.s:169    .text.BrakeR:00000000 BrakeR
C:\Users\User\AppData\Local\Temp\ccmyY5Ud.s:192    .text.BrakeR:00000010 $d
C:\Users\User\AppData\Local\Temp\ccmyY5Ud.s:197    .text.FogF:00000000 $t
C:\Users\User\AppData\Local\Temp\ccmyY5Ud.s:203    .text.FogF:00000000 FogF
C:\Users\User\AppData\Local\Temp\ccmyY5Ud.s:227    .text.FogFR:00000000 $t
C:\Users\User\AppData\Local\Temp\ccmyY5Ud.s:233    .text.FogFR:00000000 FogFR
C:\Users\User\AppData\Local\Temp\ccmyY5Ud.s:257    .text.FogR:00000000 $t
C:\Users\User\AppData\Local\Temp\ccmyY5Ud.s:263    .text.FogR:00000000 FogR
C:\Users\User\AppData\Local\Temp\ccmyY5Ud.s:286    .text.FogR:00000010 $d
C:\Users\User\AppData\Local\Temp\ccmyY5Ud.s:291    .text.FogRR:00000000 $t
C:\Users\User\AppData\Local\Temp\ccmyY5Ud.s:297    .text.FogRR:00000000 FogRR
C:\Users\User\AppData\Local\Temp\ccmyY5Ud.s:320    .text.FogRR:00000010 $d
C:\Users\User\AppData\Local\Temp\ccmyY5Ud.s:325    .text.Day:00000000 $t
C:\Users\User\AppData\Local\Temp\ccmyY5Ud.s:331    .text.Day:00000000 Day
C:\Users\User\AppData\Local\Temp\ccmyY5Ud.s:355    .text.DayR:00000000 $t
C:\Users\User\AppData\Local\Temp\ccmyY5Ud.s:361    .text.DayR:00000000 DayR
C:\Users\User\AppData\Local\Temp\ccmyY5Ud.s:385    .text.safe:00000000 $t
C:\Users\User\AppData\Local\Temp\ccmyY5Ud.s:391    .text.safe:00000000 safe
C:\Users\User\AppData\Local\Temp\ccmyY5Ud.s:433    .text.safe:00000028 $d
C:\Users\User\AppData\Local\Temp\ccmyY5Ud.s:440    .text.Hazards:00000000 $t
C:\Users\User\AppData\Local\Temp\ccmyY5Ud.s:446    .text.Hazards:00000000 Hazards
C:\Users\User\AppData\Local\Temp\ccmyY5Ud.s:499    .text.Hazards:0000004c $d
C:\Users\User\AppData\Local\Temp\ccmyY5Ud.s:505    .text.Error_Handler:00000000 $t
C:\Users\User\AppData\Local\Temp\ccmyY5Ud.s:511    .text.Error_Handler:00000000 Error_Handler
C:\Users\User\AppData\Local\Temp\ccmyY5Ud.s:543    .text.SystemClock_Config:00000000 $t
C:\Users\User\AppData\Local\Temp\ccmyY5Ud.s:549    .text.SystemClock_Config:00000000 SystemClock_Config
C:\Users\User\AppData\Local\Temp\ccmyY5Ud.s:650    .text.HAL_CAN_RxFifo0MsgPendingCallback:00000000 $t
C:\Users\User\AppData\Local\Temp\ccmyY5Ud.s:656    .text.HAL_CAN_RxFifo0MsgPendingCallback:00000000 HAL_CAN_RxFifo0MsgPendingCallback
C:\Users\User\AppData\Local\Temp\ccmyY5Ud.s:690    .text.HAL_CAN_RxFifo0MsgPendingCallback:00000018 $d
C:\Users\User\AppData\Local\Temp\ccmyY5Ud.s:697    .text.heartbeat:00000000 $t
C:\Users\User\AppData\Local\Temp\ccmyY5Ud.s:703    .text.heartbeat:00000000 heartbeat
C:\Users\User\AppData\Local\Temp\ccmyY5Ud.s:738    .text.heartbeat:0000001c $d
C:\Users\User\AppData\Local\Temp\ccmyY5Ud.s:746    .text.main:00000000 $t
C:\Users\User\AppData\Local\Temp\ccmyY5Ud.s:752    .text.main:00000000 main
C:\Users\User\AppData\Local\Temp\ccmyY5Ud.s:861    .text.main:00000064 $d
C:\Users\User\AppData\Local\Temp\ccmyY5Ud.s:881    .bss.INSERTHERE:00000000 INSERTHERE
C:\Users\User\AppData\Local\Temp\ccmyY5Ud.s:887    .bss.RXID:00000000 RXID
C:\Users\User\AppData\Local\Temp\ccmyY5Ud.s:900    .bss.canTxMailbox:00000000 canTxMailbox
C:\Users\User\AppData\Local\Temp\ccmyY5Ud.s:893    .bss.canRxMailbox:00000000 canRxMailbox
C:\Users\User\AppData\Local\Temp\ccmyY5Ud.s:907    .bss.canfil:00000000 canfil
C:\Users\User\AppData\Local\Temp\ccmyY5Ud.s:928    .bss.txData:00000000 txData
C:\Users\User\AppData\Local\Temp\ccmyY5Ud.s:914    .bss.rxData:00000000 rxData
C:\Users\User\AppData\Local\Temp\ccmyY5Ud.s:935    .bss.txHeader:00000000 txHeader
C:\Users\User\AppData\Local\Temp\ccmyY5Ud.s:921    .bss.rxHeader:00000000 rxHeader
C:\Users\User\AppData\Local\Temp\ccmyY5Ud.s:877    .bss.INSERTHERE:00000000 $d
ARM GAS  C:\Users\User\AppData\Local\Temp\ccmyY5Ud.s 			page 28


C:\Users\User\AppData\Local\Temp\ccmyY5Ud.s:884    .bss.RXID:00000000 $d
C:\Users\User\AppData\Local\Temp\ccmyY5Ud.s:890    .bss.canRxMailbox:00000000 $d
C:\Users\User\AppData\Local\Temp\ccmyY5Ud.s:896    .bss.canTxMailbox:00000000 $d
C:\Users\User\AppData\Local\Temp\ccmyY5Ud.s:903    .bss.canfil:00000000 $d
C:\Users\User\AppData\Local\Temp\ccmyY5Ud.s:910    .bss.rxData:00000000 $d
C:\Users\User\AppData\Local\Temp\ccmyY5Ud.s:917    .bss.rxHeader:00000000 $d
C:\Users\User\AppData\Local\Temp\ccmyY5Ud.s:924    .bss.txData:00000000 $d
C:\Users\User\AppData\Local\Temp\ccmyY5Ud.s:931    .bss.txHeader:00000000 $d

UNDEFINED SYMBOLS
HAL_GPIO_TogglePin
HAL_Delay
HAL_GPIO_WritePin
memset
HAL_RCC_OscConfig
HAL_RCC_ClockConfig
HAL_CAN_GetRxMessage
hcan
HAL_CAN_AddTxMessage
HAL_Init
HAL_CAN_ConfigFilter
HAL_CAN_Start
HAL_CAN_ActivateNotification
MX_GPIO_Init
MX_CAN_Init
MX_USART2_UART_Init
